---
triple:          'x86_64-apple-darwin'
binary-path:     '/Users/mauricioapaza/Desktop/PRKm/main'
relocations:
  - { offsetInCU: 0x3F, offset: 0x3F, size: 0x8, addend: 0x0, symName: _amount, symObjAddr: 0x80A2C, symBinAddr: 0x100018000, symSize: 0x0 }
  - { offsetInCU: 0x64A3, offset: 0x64A3, size: 0x8, addend: 0x0, symName: __ZNSt3__17advanceB7v160006IPfmmvEEvRT_T0_, symObjAddr: 0x60A0, symBinAddr: 0x100009D00, symSize: 0x50 }
  - { offsetInCU: 0xDF58, offset: 0xDF58, size: 0x8, addend: 0x0, symName: __ZNSt3__1eqB7v160006IfNS_9allocatorIfEEEEbRKNS_6vectorIT_T0_EES8_, symObjAddr: 0x1AC0, symBinAddr: 0x100005720, symSize: 0x90 }
  - { offsetInCU: 0xE7C9, offset: 0xE7C9, size: 0x8, addend: 0x0, symName: __ZNSt3__17getlineB7v160006IcNS_11char_traitsIcEENS_9allocatorIcEEEERNS_13basic_istreamIT_T0_EES9_RNS_12basic_stringIS6_S7_T1_EE, symObjAddr: 0x3310, symBinAddr: 0x100006F70, symSize: 0x50 }
  - { offsetInCU: 0xE9F8, offset: 0xE9F8, size: 0x8, addend: 0x0, symName: __ZNSt3__17getlineB7v160006IcNS_11char_traitsIcEENS_9allocatorIcEEEERNS_13basic_istreamIT_T0_EES9_RNS_12basic_stringIS6_S7_T1_EES6_, symObjAddr: 0x3490, symBinAddr: 0x1000070F0, symSize: 0x220 }
  - { offsetInCU: 0xEAB6, offset: 0xEAB6, size: 0x8, addend: 0x0, symName: __ZNSt3__1rsB7v160006INS_19basic_istringstreamIcNS_11char_traitsIcEENS_9allocatorIcEEEERfvEEOT_S9_OT0_, symObjAddr: 0x36B0, symBinAddr: 0x100007310, symSize: 0x30 }
  - { offsetInCU: 0xEB06, offset: 0xEB06, size: 0x8, addend: 0x0, symName: __ZNSt3__13minB7v160006IfEERKT_S3_S3_, symObjAddr: 0x3860, symBinAddr: 0x1000074C0, symSize: 0x30 }
  - { offsetInCU: 0xEB49, offset: 0xEB49, size: 0x8, addend: 0x0, symName: __ZNSt3__13maxB7v160006IfEERKT_S3_S3_, symObjAddr: 0x3890, symBinAddr: 0x1000074F0, symSize: 0x30 }
  - { offsetInCU: 0xEBA2, offset: 0xEBA2, size: 0x8, addend: 0x0, symName: __ZNSt3__13minB7v160006IfNS_6__lessIffEEEERKT_S5_S5_T0_, symObjAddr: 0x3BC0, symBinAddr: 0x100007820, symSize: 0x50 }
  - { offsetInCU: 0xEC37, offset: 0xEC37, size: 0x8, addend: 0x0, symName: __ZNSt3__13maxB7v160006IfNS_6__lessIffEEEERKT_S5_S5_T0_, symObjAddr: 0x3C40, symBinAddr: 0x1000078A0, symSize: 0x50 }
  - { offsetInCU: 0xEC91, offset: 0xEC91, size: 0x8, addend: 0x0, symName: __ZNSt3__119__debug_db_insert_cB7v160006INS_12basic_stringIcNS_11char_traitsIcEENS_9allocatorIcEEEEEEvPT_, symObjAddr: 0x3E60, symBinAddr: 0x100007AC0, symSize: 0x10 }
  - { offsetInCU: 0xECC2, offset: 0xECC2, size: 0x8, addend: 0x0, symName: __ZNSt3__119__debug_db_insert_cB7v160006INS_6vectorIfNS_9allocatorIfEEEEEEvPT_, symObjAddr: 0x4010, symBinAddr: 0x100007C70, symSize: 0x10 }
  - { offsetInCU: 0xECF3, offset: 0xECF3, size: 0x8, addend: 0x0, symName: __ZNSt3__118__debug_db_erase_cB7v160006INS_6vectorIfNS_9allocatorIfEEEEEEvPT_, symObjAddr: 0x42A0, symBinAddr: 0x100007F00, symSize: 0x10 }
  - { offsetInCU: 0xED24, offset: 0xED24, size: 0x8, addend: 0x0, symName: __ZNSt3__112__to_addressB7v160006IfEEPT_S2_, symObjAddr: 0x4390, symBinAddr: 0x100007FF0, symSize: 0x10 }
  - { offsetInCU: 0xED59, offset: 0xED59, size: 0x8, addend: 0x0, symName: __ZNSt3__119__libcpp_deallocateB7v160006EPvmm, symObjAddr: 0x44A0, symBinAddr: 0x100008100, symSize: 0x30 }
  - { offsetInCU: 0xEDA1, offset: 0xEDA1, size: 0x8, addend: 0x0, symName: __ZNSt3__127__do_deallocate_handle_sizeB7v160006IJEEEvPvmDpT_, symObjAddr: 0x44D0, symBinAddr: 0x100008130, symSize: 0x20 }
  - { offsetInCU: 0xEDDF, offset: 0xEDDF, size: 0x8, addend: 0x0, symName: __ZNSt3__124__libcpp_operator_deleteB7v160006IJPvEEEvDpT_, symObjAddr: 0x44F0, symBinAddr: 0x100008150, symSize: 0x20 }
  - { offsetInCU: 0xEE14, offset: 0xEE14, size: 0x8, addend: 0x0, symName: __ZNSt3__13maxB7v160006ImEERKT_S3_S3_, symObjAddr: 0x4C60, symBinAddr: 0x1000088C0, symSize: 0x30 }
  - { offsetInCU: 0xEE57, offset: 0xEE57, size: 0x8, addend: 0x0, symName: __ZNSt3__13minB7v160006ImEERKT_S3_S3_, symObjAddr: 0x4C90, symBinAddr: 0x1000088F0, symSize: 0x30 }
  - { offsetInCU: 0xF09B, offset: 0xF09B, size: 0x8, addend: 0x0, symName: __ZNSt3__13minB7v160006ImNS_6__lessImmEEEERKT_S5_S5_T0_, symObjAddr: 0x4D10, symBinAddr: 0x100008970, symSize: 0x50 }
  - { offsetInCU: 0xF130, offset: 0xF130, size: 0x8, addend: 0x0, symName: __ZNSt3__120__throw_length_errorB7v160006EPKc, symObjAddr: 0x4DF0, symBinAddr: 0x100008A50, symSize: 0x70 }
  - { offsetInCU: 0xF158, offset: 0xF158, size: 0x8, addend: 0x0, symName: __ZNSt3__13maxB7v160006ImNS_6__lessImmEEEERKT_S5_S5_T0_, symObjAddr: 0x4ED0, symBinAddr: 0x100008B30, symSize: 0x50 }
  - { offsetInCU: 0xF1B2, offset: 0xF1B2, size: 0x8, addend: 0x0, symName: __ZNSt3__119__allocate_at_leastB7v160006INS_9allocatorIfEEEENS_19__allocation_resultINS_16allocator_traitsIT_E7pointerEEERS5_m, symObjAddr: 0x5020, symBinAddr: 0x100008C80, symSize: 0x40 }
  - { offsetInCU: 0xF1F5, offset: 0xF1F5, size: 0x8, addend: 0x0, symName: __ZNSt3__117__libcpp_allocateB7v160006Emm, symObjAddr: 0x5190, symBinAddr: 0x100008DF0, symSize: 0x20 }
  - { offsetInCU: 0xF232, offset: 0xF232, size: 0x8, addend: 0x0, symName: __ZNSt3__121__libcpp_operator_newB7v160006IJmEEEPvDpT_, symObjAddr: 0x51B0, symBinAddr: 0x100008E10, symSize: 0x20 }
  - { offsetInCU: 0xF26B, offset: 0xF26B, size: 0x8, addend: 0x0, symName: __ZNSt3__142__uninitialized_allocator_move_if_noexceptB7v160006INS_9allocatorIfEENS_16reverse_iteratorIPfEES5_fvEET1_RT_T0_S9_S6_, symObjAddr: 0x52E0, symBinAddr: 0x100008F40, symSize: 0x70 }
  - { offsetInCU: 0xF2E7, offset: 0xF2E7, size: 0x8, addend: 0x0, symName: __ZNSt3__14swapB7v160006IPfEENS_9enable_ifIXaasr21is_move_constructibleIT_EE5valuesr18is_move_assignableIS3_EE5valueEvE4typeERS3_S6_, symObjAddr: 0x53A0, symBinAddr: 0x100009000, symSize: 0x40 }
  - { offsetInCU: 0xF338, offset: 0xF338, size: 0x8, addend: 0x0, symName: __ZNSt3__125__debug_db_invalidate_allB7v160006INS_6vectorIfNS_9allocatorIfEEEEEEvPT_, symObjAddr: 0x5490, symBinAddr: 0x1000090F0, symSize: 0x10 }
  - { offsetInCU: 0xF369, offset: 0xF369, size: 0x8, addend: 0x0, symName: __ZNSt3__14moveB7v160006INS_16reverse_iteratorIPfEES3_EET0_T_S5_S4_, symObjAddr: 0x54A0, symBinAddr: 0x100009100, symSize: 0x80 }
  - { offsetInCU: 0xF3C3, offset: 0xF3C3, size: 0x8, addend: 0x0, symName: __ZNSt3__16__moveB7v160006INS_17_ClassicAlgPolicyENS_16reverse_iteratorIPfEES4_S4_EENS_4pairIT0_T2_EES6_T1_S7_, symObjAddr: 0x5520, symBinAddr: 0x100009180, symSize: 0x90 }
  - { offsetInCU: 0xF42F, offset: 0xF42F, size: 0x8, addend: 0x0, symName: __ZNSt3__123__dispatch_copy_or_moveB7v160006INS_17_ClassicAlgPolicyENS_11__move_loopIS1_EENS_14__move_trivialENS_16reverse_iteratorIPfEES7_S7_EENS_4pairIT2_T4_EES9_T3_SA_, symObjAddr: 0x55B0, symBinAddr: 0x100009210, symSize: 0x90 }
  - { offsetInCU: 0xF4AD, offset: 0xF4AD, size: 0x8, addend: 0x0, symName: __ZNSt3__121__unwrap_and_dispatchB7v160006INS_10__overloadINS_11__move_loopINS_17_ClassicAlgPolicyEEENS_14__move_trivialEEENS_16reverse_iteratorIPfEES9_S9_Li0EEENS_4pairIT0_T2_EESB_T1_SC_, symObjAddr: 0x5640, symBinAddr: 0x1000092A0, symSize: 0x210 }
  - { offsetInCU: 0xF53C, offset: 0xF53C, size: 0x8, addend: 0x0, symName: __ZNSt3__114__unwrap_rangeB7v160006INS_16reverse_iteratorIPfEES3_EENS_4pairIT0_S5_EET_S7_, symObjAddr: 0x5850, symBinAddr: 0x1000094B0, symSize: 0x90 }
  - { offsetInCU: 0xF6F6, offset: 0xF6F6, size: 0x8, addend: 0x0, symName: __ZNSt3__113__unwrap_iterB7v160006INS_16reverse_iteratorIPfEENS_18__unwrap_iter_implIS3_Lb0EEELi0EEEDTclsrT0_8__unwrapclsr3stdE7declvalIT_EEEES7_, symObjAddr: 0x5980, symBinAddr: 0x1000095E0, symSize: 0x40 }
  - { offsetInCU: 0xF73A, offset: 0xF73A, size: 0x8, addend: 0x0, symName: __ZNSt3__19make_pairB7v160006INS_16reverse_iteratorIPfEES3_EENS_4pairINS_18__unwrap_ref_decayIT_E4typeENS5_IT0_E4typeEEEOS6_OS9_, symObjAddr: 0x59C0, symBinAddr: 0x100009620, symSize: 0x30 }
  - { offsetInCU: 0xF789, offset: 0xF789, size: 0x8, addend: 0x0, symName: __ZNSt3__114__rewrap_rangeB7v160006INS_16reverse_iteratorIPfEES3_EET_S4_T0_, symObjAddr: 0x59F0, symBinAddr: 0x100009650, symSize: 0x60 }
  - { offsetInCU: 0xF7D5, offset: 0xF7D5, size: 0x8, addend: 0x0, symName: __ZNSt3__113__rewrap_iterB7v160006INS_16reverse_iteratorIPfEES3_NS_18__unwrap_iter_implIS3_Lb0EEEEET_S6_T0_, symObjAddr: 0x5A50, symBinAddr: 0x1000096B0, symSize: 0x70 }
  - { offsetInCU: 0xF82A, offset: 0xF82A, size: 0x8, addend: 0x0, symName: __ZNSt3__1neB7v160006IPfS1_EEbRKNS_16reverse_iteratorIT_EERKNS2_IT0_EE, symObjAddr: 0x5AC0, symBinAddr: 0x100009720, symSize: 0x40 }
  - { offsetInCU: 0xF95B, offset: 0xF95B, size: 0x8, addend: 0x0, symName: __ZNSt3__18distanceB7v160006IPfEENS_15iterator_traitsIT_E15difference_typeES3_S3_, symObjAddr: 0x6070, symBinAddr: 0x100009CD0, symSize: 0x30 }
  - { offsetInCU: 0xF99E, offset: 0xF99E, size: 0x8, addend: 0x0, symName: __ZNSt3__14copyB7v160006IPfS1_EET0_T_S3_S2_, symObjAddr: 0x60F0, symBinAddr: 0x100009D50, symSize: 0x40 }
  - { offsetInCU: 0xF9F8, offset: 0xF9F8, size: 0x8, addend: 0x0, symName: __ZNSt3__110__distanceB7v160006IPfEENS_15iterator_traitsIT_E15difference_typeES3_S3_NS_26random_access_iterator_tagE, symObjAddr: 0x62E0, symBinAddr: 0x100009F40, symSize: 0x20 }
  - { offsetInCU: 0xFA45, offset: 0xFA45, size: 0x8, addend: 0x0, symName: __ZNSt3__121__convert_to_integralB7v160006Em, symObjAddr: 0x6300, symBinAddr: 0x100009F60, symSize: 0x10 }
  - { offsetInCU: 0xFA71, offset: 0xFA71, size: 0x8, addend: 0x0, symName: __ZNSt3__19__advanceB7v160006IPfEEvRT_NS_15iterator_traitsIS2_E15difference_typeENS_26random_access_iterator_tagE, symObjAddr: 0x6310, symBinAddr: 0x100009F70, symSize: 0x20 }
  - { offsetInCU: 0xFABA, offset: 0xFABA, size: 0x8, addend: 0x0, symName: __ZNSt3__16__copyB7v160006INS_17_ClassicAlgPolicyEPfS2_S2_EENS_4pairIT0_T2_EES4_T1_S5_, symObjAddr: 0x6330, symBinAddr: 0x100009F90, symSize: 0x40 }
  - { offsetInCU: 0xFB26, offset: 0xFB26, size: 0x8, addend: 0x0, symName: __ZNSt3__123__dispatch_copy_or_moveB7v160006INS_17_ClassicAlgPolicyENS_11__copy_loopIS1_EENS_14__copy_trivialEPfS5_S5_EENS_4pairIT2_T4_EES7_T3_S8_, symObjAddr: 0x6370, symBinAddr: 0x100009FD0, symSize: 0x40 }
  - { offsetInCU: 0xFBA4, offset: 0xFBA4, size: 0x8, addend: 0x0, symName: __ZNSt3__121__unwrap_and_dispatchB7v160006INS_10__overloadINS_11__copy_loopINS_17_ClassicAlgPolicyEEENS_14__copy_trivialEEEPfS7_S7_Li0EEENS_4pairIT0_T2_EES9_T1_SA_, symObjAddr: 0x63B0, symBinAddr: 0x10000A010, symSize: 0xB0 }
  - { offsetInCU: 0xFC33, offset: 0xFC33, size: 0x8, addend: 0x0, symName: __ZNSt3__114__unwrap_rangeB7v160006IPfS1_EENS_4pairIT0_S3_EET_S5_, symObjAddr: 0x6460, symBinAddr: 0x10000A0C0, symSize: 0x50 }
  - { offsetInCU: 0xFDC8, offset: 0xFDC8, size: 0x8, addend: 0x0, symName: __ZNSt3__113__unwrap_iterB7v160006IPfNS_18__unwrap_iter_implIS1_Lb1EEELi0EEEDTclsrT0_8__unwrapclsr3stdE7declvalIT_EEEES5_, symObjAddr: 0x64F0, symBinAddr: 0x10000A150, symSize: 0x20 }
  - { offsetInCU: 0xFE0C, offset: 0xFE0C, size: 0x8, addend: 0x0, symName: __ZNSt3__19make_pairB7v160006IPfS1_EENS_4pairINS_18__unwrap_ref_decayIT_E4typeENS3_IT0_E4typeEEEOS4_OS7_, symObjAddr: 0x6510, symBinAddr: 0x10000A170, symSize: 0x30 }
  - { offsetInCU: 0xFE5B, offset: 0xFE5B, size: 0x8, addend: 0x0, symName: __ZNSt3__114__rewrap_rangeB7v160006IPfS1_EET_S2_T0_, symObjAddr: 0x6540, symBinAddr: 0x10000A1A0, symSize: 0x30 }
  - { offsetInCU: 0xFEA7, offset: 0xFEA7, size: 0x8, addend: 0x0, symName: __ZNSt3__113__rewrap_iterB7v160006IPfS1_NS_18__unwrap_iter_implIS1_Lb1EEEEET_S4_T0_, symObjAddr: 0x6570, symBinAddr: 0x10000A1D0, symSize: 0x40 }
  - { offsetInCU: 0xFEFC, offset: 0xFEFC, size: 0x8, addend: 0x0, symName: __ZNSt3__119__copy_trivial_implB7v160006IffEENS_4pairIPT_PT0_EES3_S3_S5_, symObjAddr: 0x65B0, symBinAddr: 0x10000A210, symSize: 0x70 }
  - { offsetInCU: 0xFF64, offset: 0xFF64, size: 0x8, addend: 0x0, symName: __ZNSt3__19make_pairB7v160006IRPfS1_EENS_4pairINS_18__unwrap_ref_decayIT_E4typeENS4_IT0_E4typeEEEOS5_OS8_, symObjAddr: 0x6620, symBinAddr: 0x10000A280, symSize: 0x30 }
  - { offsetInCU: 0x10006, offset: 0x10006, size: 0x8, addend: 0x0, symName: __ZNSt3__130__uninitialized_allocator_copyB7v160006INS_9allocatorIfEEPfS3_S3_EET2_RT_T0_T1_S4_, symObjAddr: 0x6780, symBinAddr: 0x10000A3E0, symSize: 0x100 }
  - { offsetInCU: 0x100A4, offset: 0x100A4, size: 0x8, addend: 0x0, symName: __ZNSt3__122__make_exception_guardB7v160006INS_29_AllocatorDestroyRangeReverseINS_9allocatorIfEEPfEEEENS_28__exception_guard_exceptionsIT_EES7_, symObjAddr: 0x6880, symBinAddr: 0x10000A4E0, symSize: 0x60 }
  - { offsetInCU: 0x100D9, offset: 0x100D9, size: 0x8, addend: 0x0, symName: __ZNSt3__119__allocator_destroyB7v160006INS_9allocatorIfEENS_16reverse_iteratorIPfEES5_EEvRT_T0_T1_, symObjAddr: 0x6B10, symBinAddr: 0x10000A770, symSize: 0x70 }
  - { offsetInCU: 0x1013C, offset: 0x1013C, size: 0x8, addend: 0x0, symName: __ZNSt3__112__to_addressB7v160006INS_16reverse_iteratorIPfEEvEENS_5decayIDTclsr19__to_address_helperIT_EE6__callclsr3stdE7declvalIRKS5_EEEEE4typeES7_, symObjAddr: 0x6B80, symBinAddr: 0x10000A7E0, symSize: 0x20 }
  - { offsetInCU: 0x1019B, offset: 0x1019B, size: 0x8, addend: 0x0, symName: __ZNSt3__122__make_exception_guardB7v160006INS_6vectorIfNS_9allocatorIfEEE16__destroy_vectorEEENS_28__exception_guard_exceptionsIT_EES7_, symObjAddr: 0x6DA0, symBinAddr: 0x10000AA00, symSize: 0x40 }
  - { offsetInCU: 0x101D0, offset: 0x101D0, size: 0x8, addend: 0x0, symName: __ZNSt3__119__debug_db_insert_cB7v160006INS_6vectorINS1_IfNS_9allocatorIfEEEENS2_IS4_EEEEEEvPT_, symObjAddr: 0x7150, symBinAddr: 0x10000ADB0, symSize: 0x10 }
  - { offsetInCU: 0x10201, offset: 0x10201, size: 0x8, addend: 0x0, symName: __ZNSt3__118__debug_db_erase_cB7v160006INS_6vectorINS1_IfNS_9allocatorIfEEEENS2_IS4_EEEEEEvPT_, symObjAddr: 0x73E0, symBinAddr: 0x10000B040, symSize: 0x10 }
  - { offsetInCU: 0x10232, offset: 0x10232, size: 0x8, addend: 0x0, symName: __ZNSt3__112__to_addressB7v160006INS_6vectorIfNS_9allocatorIfEEEEEEPT_S6_, symObjAddr: 0x74E0, symBinAddr: 0x10000B140, symSize: 0x10 }
  - { offsetInCU: 0x10267, offset: 0x10267, size: 0x8, addend: 0x0, symName: __ZNSt3__119__debug_db_insert_cB7v160006INS_6vectorIP7ClusterNS_9allocatorIS3_EEEEEEvPT_, symObjAddr: 0x7720, symBinAddr: 0x10000B380, symSize: 0x10 }
  - { offsetInCU: 0x10298, offset: 0x10298, size: 0x8, addend: 0x0, symName: __ZNSt3__118__debug_db_erase_cB7v160006INS_6vectorIP7ClusterNS_9allocatorIS3_EEEEEEvPT_, symObjAddr: 0x79B0, symBinAddr: 0x10000B610, symSize: 0x10 }
  - { offsetInCU: 0x102C9, offset: 0x102C9, size: 0x8, addend: 0x0, symName: __ZNSt3__112__to_addressB7v160006IP7ClusterEEPT_S4_, symObjAddr: 0x7AA0, symBinAddr: 0x10000B700, symSize: 0x10 }
  - { offsetInCU: 0x102FE, offset: 0x102FE, size: 0x8, addend: 0x0, symName: __ZNSt3__119__allocate_at_leastB7v160006INS_9allocatorIP7ClusterEEEENS_19__allocation_resultINS_16allocator_traitsIT_E7pointerEEERS7_m, symObjAddr: 0x8490, symBinAddr: 0x10000C0F0, symSize: 0x40 }
  - { offsetInCU: 0x10341, offset: 0x10341, size: 0x8, addend: 0x0, symName: __ZNSt3__142__uninitialized_allocator_move_if_noexceptB7v160006INS_9allocatorIP7ClusterEENS_16reverse_iteratorIPS3_EES7_S3_vEET1_RT_T0_SB_S8_, symObjAddr: 0x86D0, symBinAddr: 0x10000C330, symSize: 0x70 }
  - { offsetInCU: 0x103BD, offset: 0x103BD, size: 0x8, addend: 0x0, symName: __ZNSt3__14swapB7v160006IPP7ClusterEENS_9enable_ifIXaasr21is_move_constructibleIT_EE5valuesr18is_move_assignableIS5_EE5valueEvE4typeERS5_S8_, symObjAddr: 0x8790, symBinAddr: 0x10000C3F0, symSize: 0x40 }
  - { offsetInCU: 0x1040E, offset: 0x1040E, size: 0x8, addend: 0x0, symName: __ZNSt3__125__debug_db_invalidate_allB7v160006INS_6vectorIP7ClusterNS_9allocatorIS3_EEEEEEvPT_, symObjAddr: 0x8880, symBinAddr: 0x10000C4E0, symSize: 0x10 }
  - { offsetInCU: 0x1043F, offset: 0x1043F, size: 0x8, addend: 0x0, symName: __ZNSt3__14moveB7v160006INS_16reverse_iteratorIPP7ClusterEES5_EET0_T_S7_S6_, symObjAddr: 0x8890, symBinAddr: 0x10000C4F0, symSize: 0x80 }
  - { offsetInCU: 0x10499, offset: 0x10499, size: 0x8, addend: 0x0, symName: __ZNSt3__16__moveB7v160006INS_17_ClassicAlgPolicyENS_16reverse_iteratorIPP7ClusterEES6_S6_EENS_4pairIT0_T2_EES8_T1_S9_, symObjAddr: 0x8910, symBinAddr: 0x10000C570, symSize: 0x90 }
  - { offsetInCU: 0x10505, offset: 0x10505, size: 0x8, addend: 0x0, symName: __ZNSt3__123__dispatch_copy_or_moveB7v160006INS_17_ClassicAlgPolicyENS_11__move_loopIS1_EENS_14__move_trivialENS_16reverse_iteratorIPP7ClusterEES9_S9_EENS_4pairIT2_T4_EESB_T3_SC_, symObjAddr: 0x89A0, symBinAddr: 0x10000C600, symSize: 0x90 }
  - { offsetInCU: 0x10583, offset: 0x10583, size: 0x8, addend: 0x0, symName: __ZNSt3__121__unwrap_and_dispatchB7v160006INS_10__overloadINS_11__move_loopINS_17_ClassicAlgPolicyEEENS_14__move_trivialEEENS_16reverse_iteratorIPP7ClusterEESB_SB_Li0EEENS_4pairIT0_T2_EESD_T1_SE_, symObjAddr: 0x8A30, symBinAddr: 0x10000C690, symSize: 0x210 }
  - { offsetInCU: 0x10612, offset: 0x10612, size: 0x8, addend: 0x0, symName: __ZNSt3__114__unwrap_rangeB7v160006INS_16reverse_iteratorIPP7ClusterEES5_EENS_4pairIT0_S7_EET_S9_, symObjAddr: 0x8C40, symBinAddr: 0x10000C8A0, symSize: 0x90 }
  - { offsetInCU: 0x10732, offset: 0x10732, size: 0x8, addend: 0x0, symName: __ZNSt3__113__unwrap_iterB7v160006INS_16reverse_iteratorIPP7ClusterEENS_18__unwrap_iter_implIS5_Lb0EEELi0EEEDTclsrT0_8__unwrapclsr3stdE7declvalIT_EEEES9_, symObjAddr: 0x8D70, symBinAddr: 0x10000C9D0, symSize: 0x40 }
  - { offsetInCU: 0x10776, offset: 0x10776, size: 0x8, addend: 0x0, symName: __ZNSt3__19make_pairB7v160006INS_16reverse_iteratorIPP7ClusterEES5_EENS_4pairINS_18__unwrap_ref_decayIT_E4typeENS7_IT0_E4typeEEEOS8_OSB_, symObjAddr: 0x8DB0, symBinAddr: 0x10000CA10, symSize: 0x30 }
  - { offsetInCU: 0x107C5, offset: 0x107C5, size: 0x8, addend: 0x0, symName: __ZNSt3__114__rewrap_rangeB7v160006INS_16reverse_iteratorIPP7ClusterEES5_EET_S6_T0_, symObjAddr: 0x8DE0, symBinAddr: 0x10000CA40, symSize: 0x60 }
  - { offsetInCU: 0x10811, offset: 0x10811, size: 0x8, addend: 0x0, symName: __ZNSt3__113__rewrap_iterB7v160006INS_16reverse_iteratorIPP7ClusterEES5_NS_18__unwrap_iter_implIS5_Lb0EEEEET_S8_T0_, symObjAddr: 0x8E40, symBinAddr: 0x10000CAA0, symSize: 0x70 }
  - { offsetInCU: 0x10866, offset: 0x10866, size: 0x8, addend: 0x0, symName: __ZNSt3__1neB7v160006IPP7ClusterS3_EEbRKNS_16reverse_iteratorIT_EERKNS4_IT0_EE, symObjAddr: 0x8EB0, symBinAddr: 0x10000CB10, symSize: 0x40 }
  - { offsetInCU: 0x1091E, offset: 0x1091E, size: 0x8, addend: 0x0, symName: __ZNSt3__119__allocate_at_leastB7v160006INS_9allocatorINS_6vectorIfNS1_IfEEEEEEEENS_19__allocation_resultINS_16allocator_traitsIT_E7pointerEEERS8_m, symObjAddr: 0x99B0, symBinAddr: 0x10000D610, symSize: 0x40 }
  - { offsetInCU: 0x10961, offset: 0x10961, size: 0x8, addend: 0x0, symName: __ZNSt3__142__uninitialized_allocator_move_if_noexceptB7v160006INS_9allocatorINS_6vectorIfNS1_IfEEEEEENS_16reverse_iteratorIPS4_EES8_S8_EET2_RT_T0_T1_S9_, symObjAddr: 0x9B40, symBinAddr: 0x10000D7A0, symSize: 0x180 }
  - { offsetInCU: 0x10A00, offset: 0x10A00, size: 0x8, addend: 0x0, symName: __ZNSt3__14swapB7v160006IPNS_6vectorIfNS_9allocatorIfEEEEEENS_9enable_ifIXaasr21is_move_constructibleIT_EE5valuesr18is_move_assignableIS7_EE5valueEvE4typeERS7_SA_, symObjAddr: 0x9D10, symBinAddr: 0x10000D970, symSize: 0x40 }
  - { offsetInCU: 0x10A51, offset: 0x10A51, size: 0x8, addend: 0x0, symName: __ZNSt3__125__debug_db_invalidate_allB7v160006INS_6vectorINS1_IfNS_9allocatorIfEEEENS2_IS4_EEEEEEvPT_, symObjAddr: 0x9DF0, symBinAddr: 0x10000DA50, symSize: 0x10 }
  - { offsetInCU: 0x10A82, offset: 0x10A82, size: 0x8, addend: 0x0, symName: __ZNSt3__122__make_exception_guardB7v160006INS_29_AllocatorDestroyRangeReverseINS_9allocatorINS_6vectorIfNS2_IfEEEEEENS_16reverse_iteratorIPS5_EEEEEENS_28__exception_guard_exceptionsIT_EESC_, symObjAddr: 0x9E00, symBinAddr: 0x10000DA60, symSize: 0x60 }
  - { offsetInCU: 0x10AB7, offset: 0x10AB7, size: 0x8, addend: 0x0, symName: __ZNSt3__1neB7v160006IPNS_6vectorIfNS_9allocatorIfEEEES5_EEbRKNS_16reverse_iteratorIT_EERKNS6_IT0_EE, symObjAddr: 0x9EA0, symBinAddr: 0x10000DB00, symSize: 0x40 }
  - { offsetInCU: 0x10B03, offset: 0x10B03, size: 0x8, addend: 0x0, symName: __ZNSt3__112__to_addressB7v160006INS_16reverse_iteratorIPNS_6vectorIfNS_9allocatorIfEEEEEEvEENS_5decayIDTclsr19__to_address_helperIT_EE6__callclsr3stdE7declvalIRKS9_EEEEE4typeESB_, symObjAddr: 0x9F10, symBinAddr: 0x10000DB70, symSize: 0x20 }
  - { offsetInCU: 0x10B39, offset: 0x10B39, size: 0x8, addend: 0x0, symName: __ZNSt3__115__debug_db_swapB7v160006INS_6vectorIfNS_9allocatorIfEEEEEEvPT_S6_, symObjAddr: 0xA1B0, symBinAddr: 0x10000DE10, symSize: 0x10 }
  - { offsetInCU: 0x10BA1, offset: 0x10BA1, size: 0x8, addend: 0x0, symName: __ZNSt3__119__allocator_destroyB7v160006INS_9allocatorINS_6vectorIfNS1_IfEEEEEENS_16reverse_iteratorINS6_IPS4_EEEES9_EEvRT_T0_T1_, symObjAddr: 0xA350, symBinAddr: 0x10000DFB0, symSize: 0x70 }
  - { offsetInCU: 0x10C04, offset: 0x10C04, size: 0x8, addend: 0x0, symName: __ZNSt3__1neB7v160006INS_16reverse_iteratorIPNS_6vectorIfNS_9allocatorIfEEEEEES7_EEbRKNS1_IT_EERKNS1_IT0_EE, symObjAddr: 0xA3F0, symBinAddr: 0x10000E050, symSize: 0x50 }
  - { offsetInCU: 0x10C50, offset: 0x10C50, size: 0x8, addend: 0x0, symName: __ZNSt3__112__to_addressB7v160006INS_16reverse_iteratorINS1_IPNS_6vectorIfNS_9allocatorIfEEEEEEEEvEENS_5decayIDTclsr19__to_address_helperIT_EE6__callclsr3stdE7declvalIRKSA_EEEEE4typeESC_, symObjAddr: 0xA440, symBinAddr: 0x10000E0A0, symSize: 0x20 }
  - { offsetInCU: 0x10CAF, offset: 0x10CAF, size: 0x8, addend: 0x0, symName: __ZNSt3__122__make_exception_guardB7v160006INS_6vectorINS1_IfNS_9allocatorIfEEEENS2_IS4_EEE16__destroy_vectorEEENS_28__exception_guard_exceptionsIT_EES9_, symObjAddr: 0xA8F0, symBinAddr: 0x10000E550, symSize: 0x40 }
  - { offsetInCU: 0x10CE4, offset: 0x10CE4, size: 0x8, addend: 0x0, symName: __ZNSt3__130__uninitialized_allocator_copyB7v160006INS_9allocatorINS_6vectorIfNS1_IfEEEEEEPS4_S6_S6_EET2_RT_T0_T1_S7_, symObjAddr: 0xAB40, symBinAddr: 0x10000E7A0, symSize: 0x100 }
  - { offsetInCU: 0x10D82, offset: 0x10D82, size: 0x8, addend: 0x0, symName: __ZNSt3__122__make_exception_guardB7v160006INS_29_AllocatorDestroyRangeReverseINS_9allocatorINS_6vectorIfNS2_IfEEEEEEPS5_EEEENS_28__exception_guard_exceptionsIT_EESA_, symObjAddr: 0xAC40, symBinAddr: 0x10000E8A0, symSize: 0x60 }
  - { offsetInCU: 0x10DB7, offset: 0x10DB7, size: 0x8, addend: 0x0, symName: __ZNSt3__119__allocator_destroyB7v160006INS_9allocatorINS_6vectorIfNS1_IfEEEEEENS_16reverse_iteratorIPS4_EES8_EEvRT_T0_T1_, symObjAddr: 0xAED0, symBinAddr: 0x10000EB30, symSize: 0x70 }
  - { offsetInCU: 0x10E1A, offset: 0x10E1A, size: 0x8, addend: 0x0, symName: __ZNSt3__15equalB7v160006INS_11__wrap_iterIPKfEES4_EEbT_S5_T0_, symObjAddr: 0xB270, symBinAddr: 0x10000EED0, symSize: 0x50 }
  - { offsetInCU: 0x10E74, offset: 0x10E74, size: 0x8, addend: 0x0, symName: __ZNSt3__15equalB7v160006INS_11__wrap_iterIPKfEES4_NS_10__equal_toEEEbT_S6_T0_T1_, symObjAddr: 0xB320, symBinAddr: 0x10000EF80, symSize: 0xA0 }
  - { offsetInCU: 0x10EE5, offset: 0x10EE5, size: 0x8, addend: 0x0, symName: __ZNSt3__1neB7v160006IPKfEEbRKNS_11__wrap_iterIT_EES7_, symObjAddr: 0xB3C0, symBinAddr: 0x10000F020, symSize: 0x30 }
  - { offsetInCU: 0x10F63, offset: 0x10F63, size: 0x8, addend: 0x0, symName: __ZNSt3__1eqB7v160006IPKfEEbRKNS_11__wrap_iterIT_EES7_, symObjAddr: 0xB460, symBinAddr: 0x10000F0C0, symSize: 0x40 }
  - { offsetInCU: 0x10FA6, offset: 0x10FA6, size: 0x8, addend: 0x0, symName: __ZNSt3__122__make_exception_guardB7v160006INS_6vectorINS1_INS1_IfNS_9allocatorIfEEEENS2_IS4_EEEENS2_IS6_EEE16__destroy_vectorEEENS_28__exception_guard_exceptionsIT_EESB_, symObjAddr: 0xB6B0, symBinAddr: 0x10000F310, symSize: 0x40 }
  - { offsetInCU: 0x10FDB, offset: 0x10FDB, size: 0x8, addend: 0x0, symName: __ZNSt3__119__debug_db_insert_cB7v160006INS_6vectorINS1_INS1_IfNS_9allocatorIfEEEENS2_IS4_EEEENS2_IS6_EEEEEEvPT_, symObjAddr: 0xB720, symBinAddr: 0x10000F380, symSize: 0x10 }
  - { offsetInCU: 0x1100C, offset: 0x1100C, size: 0x8, addend: 0x0, symName: __ZNSt3__119__allocate_at_leastB7v160006INS_9allocatorINS_6vectorINS2_IfNS1_IfEEEENS1_IS4_EEEEEEEENS_19__allocation_resultINS_16allocator_traitsIT_E7pointerEEERSA_m, symObjAddr: 0xBA60, symBinAddr: 0x10000F6C0, symSize: 0x40 }
  - { offsetInCU: 0x1104F, offset: 0x1104F, size: 0x8, addend: 0x0, symName: __ZNSt3__112__to_addressB7v160006INS_6vectorINS1_IfNS_9allocatorIfEEEENS2_IS4_EEEEEEPT_S8_, symObjAddr: 0xBCF0, symBinAddr: 0x10000F950, symSize: 0x10 }
  - { offsetInCU: 0x11084, offset: 0x11084, size: 0x8, addend: 0x0, symName: __ZNSt3__130__uninitialized_allocator_copyB7v160006INS_9allocatorINS_6vectorINS2_IfNS1_IfEEEENS1_IS4_EEEEEEPS6_S8_S8_EET2_RT_T0_T1_S9_, symObjAddr: 0xBD80, symBinAddr: 0x10000F9E0, symSize: 0x100 }
  - { offsetInCU: 0x11122, offset: 0x11122, size: 0x8, addend: 0x0, symName: __ZNSt3__122__make_exception_guardB7v160006INS_29_AllocatorDestroyRangeReverseINS_9allocatorINS_6vectorINS3_IfNS2_IfEEEENS2_IS5_EEEEEEPS7_EEEENS_28__exception_guard_exceptionsIT_EESC_, symObjAddr: 0xBEE0, symBinAddr: 0x10000FB40, symSize: 0x60 }
  - { offsetInCU: 0x11157, offset: 0x11157, size: 0x8, addend: 0x0, symName: __ZNSt3__119__allocator_destroyB7v160006INS_9allocatorINS_6vectorINS2_IfNS1_IfEEEENS1_IS4_EEEEEENS_16reverse_iteratorIPS6_EESA_EEvRT_T0_T1_, symObjAddr: 0xC170, symBinAddr: 0x10000FDD0, symSize: 0x70 }
  - { offsetInCU: 0x111BA, offset: 0x111BA, size: 0x8, addend: 0x0, symName: __ZNSt3__1neB7v160006IPNS_6vectorINS1_IfNS_9allocatorIfEEEENS2_IS4_EEEES7_EEbRKNS_16reverse_iteratorIT_EERKNS8_IT0_EE, symObjAddr: 0xC210, symBinAddr: 0x10000FE70, symSize: 0x40 }
  - { offsetInCU: 0x11206, offset: 0x11206, size: 0x8, addend: 0x0, symName: __ZNSt3__112__to_addressB7v160006INS_16reverse_iteratorIPNS_6vectorINS2_IfNS_9allocatorIfEEEENS3_IS5_EEEEEEvEENS_5decayIDTclsr19__to_address_helperIT_EE6__callclsr3stdE7declvalIRKSB_EEEEE4typeESD_, symObjAddr: 0xC280, symBinAddr: 0x10000FEE0, symSize: 0x20 }
  - { offsetInCU: 0x11265, offset: 0x11265, size: 0x8, addend: 0x0, symName: __ZNSt3__118__debug_db_erase_cB7v160006INS_6vectorINS1_INS1_IfNS_9allocatorIfEEEENS2_IS4_EEEENS2_IS6_EEEEEEvPT_, symObjAddr: 0xC560, symBinAddr: 0x1000101C0, symSize: 0x10 }
  - { offsetInCU: 0x11296, offset: 0x11296, size: 0x8, addend: 0x0, symName: __ZNSt3__119__debug_db_insert_cB7v160006INS_6vectorI4DataNS_9allocatorIS2_EEEEEEvPT_, symObjAddr: 0xCC60, symBinAddr: 0x1000108C0, symSize: 0x10 }
  - { offsetInCU: 0x112C7, offset: 0x112C7, size: 0x8, addend: 0x0, symName: __ZNSt3__118__debug_db_erase_cB7v160006INS_6vectorI4DataNS_9allocatorIS2_EEEEEEvPT_, symObjAddr: 0xCEF0, symBinAddr: 0x100010B50, symSize: 0x10 }
  - { offsetInCU: 0x112F8, offset: 0x112F8, size: 0x8, addend: 0x0, symName: __ZNSt3__112__to_addressB7v160006I4DataEEPT_S3_, symObjAddr: 0xCFE0, symBinAddr: 0x100010C40, symSize: 0x10 }
  - { offsetInCU: 0x1132D, offset: 0x1132D, size: 0x8, addend: 0x0, symName: __ZNSt3__19use_facetB7v160006INS_5ctypeIcEEEERKT_RKNS_6localeE, symObjAddr: 0xD200, symBinAddr: 0x100010E60, symSize: 0x30 }
  - { offsetInCU: 0x117FC, offset: 0x117FC, size: 0x8, addend: 0x0, symName: __ZNSt3__125__debug_db_invalidate_allB7v160006INS_12basic_stringIcNS_11char_traitsIcEENS_9allocatorIcEEEEEEvPT_, symObjAddr: 0xD8B0, symBinAddr: 0x100011510, symSize: 0x10 }
  - { offsetInCU: 0x11A62, offset: 0x11A62, size: 0x8, addend: 0x0, symName: __ZNSt3__119__allocate_at_leastB7v160006INS_9allocatorI4DataEEEENS_19__allocation_resultINS_16allocator_traitsIT_E7pointerEEERS6_m, symObjAddr: 0xE450, symBinAddr: 0x1000120B0, symSize: 0x40 }
  - { offsetInCU: 0x11AA5, offset: 0x11AA5, size: 0x8, addend: 0x0, symName: __ZNSt3__142__uninitialized_allocator_move_if_noexceptB7v160006INS_9allocatorI4DataEENS_16reverse_iteratorIPS2_EES6_S6_EET2_RT_T0_T1_S7_, symObjAddr: 0xE5E0, symBinAddr: 0x100012240, symSize: 0x180 }
  - { offsetInCU: 0x11B44, offset: 0x11B44, size: 0x8, addend: 0x0, symName: __ZNSt3__14swapB7v160006IP4DataEENS_9enable_ifIXaasr21is_move_constructibleIT_EE5valuesr18is_move_assignableIS4_EE5valueEvE4typeERS4_S7_, symObjAddr: 0xE7B0, symBinAddr: 0x100012410, symSize: 0x40 }
  - { offsetInCU: 0x11B95, offset: 0x11B95, size: 0x8, addend: 0x0, symName: __ZNSt3__125__debug_db_invalidate_allB7v160006INS_6vectorI4DataNS_9allocatorIS2_EEEEEEvPT_, symObjAddr: 0xE8A0, symBinAddr: 0x100012500, symSize: 0x10 }
  - { offsetInCU: 0x11BC6, offset: 0x11BC6, size: 0x8, addend: 0x0, symName: __ZNSt3__122__make_exception_guardB7v160006INS_29_AllocatorDestroyRangeReverseINS_9allocatorI4DataEENS_16reverse_iteratorIPS3_EEEEEENS_28__exception_guard_exceptionsIT_EESA_, symObjAddr: 0xE8B0, symBinAddr: 0x100012510, symSize: 0x60 }
  - { offsetInCU: 0x11BFB, offset: 0x11BFB, size: 0x8, addend: 0x0, symName: __ZNSt3__1neB7v160006IP4DataS2_EEbRKNS_16reverse_iteratorIT_EERKNS3_IT0_EE, symObjAddr: 0xE950, symBinAddr: 0x1000125B0, symSize: 0x40 }
  - { offsetInCU: 0x11C47, offset: 0x11C47, size: 0x8, addend: 0x0, symName: __ZNSt3__112__to_addressB7v160006INS_16reverse_iteratorIP4DataEEvEENS_5decayIDTclsr19__to_address_helperIT_EE6__callclsr3stdE7declvalIRKS6_EEEEE4typeES8_, symObjAddr: 0xE9C0, symBinAddr: 0x100012620, symSize: 0x20 }
  - { offsetInCU: 0x11CA6, offset: 0x11CA6, size: 0x8, addend: 0x0, symName: __ZNSt3__119__allocator_destroyB7v160006INS_9allocatorI4DataEENS_16reverse_iteratorINS4_IPS2_EEEES7_EEvRT_T0_T1_, symObjAddr: 0xED50, symBinAddr: 0x1000129B0, symSize: 0x70 }
  - { offsetInCU: 0x11D09, offset: 0x11D09, size: 0x8, addend: 0x0, symName: __ZNSt3__1neB7v160006INS_16reverse_iteratorIP4DataEES4_EEbRKNS1_IT_EERKNS1_IT0_EE, symObjAddr: 0xEDF0, symBinAddr: 0x100012A50, symSize: 0x50 }
  - { offsetInCU: 0x11D55, offset: 0x11D55, size: 0x8, addend: 0x0, symName: __ZNSt3__112__to_addressB7v160006INS_16reverse_iteratorINS1_IP4DataEEEEvEENS_5decayIDTclsr19__to_address_helperIT_EE6__callclsr3stdE7declvalIRKS7_EEEEE4typeES9_, symObjAddr: 0xEE40, symBinAddr: 0x100012AA0, symSize: 0x20 }
  - { offsetInCU: 0x12346, offset: 0x12346, size: 0x8, addend: 0x0, symName: __ZSt28__throw_bad_array_new_lengthB7v160006v, symObjAddr: 0x5150, symBinAddr: 0x100008DB0, symSize: 0x40 }
  - { offsetInCU: 0x129C5, offset: 0x129C5, size: 0x8, addend: 0x0, symName: __ZNSt3__16vectorIfNS_9allocatorIfEEE26__swap_out_circular_bufferERNS_14__split_bufferIfRS2_EE, symObjAddr: 0x4960, symBinAddr: 0x1000085C0, symSize: 0x130 }
  - { offsetInCU: 0x12A5C, offset: 0x12A5C, size: 0x8, addend: 0x0, symName: __Z3powB7v160006IfiENSt3__19enable_ifIXaasr3std13is_arithmeticIT_EE5valuesr3std13is_arithmeticIT0_EE5valueENS0_9__promoteIS2_S3_vEEE4type4typeES2_S3_, symObjAddr: 0xAC0, symBinAddr: 0x100004720, symSize: 0x30 }
  - { offsetInCU: 0x12E6D, offset: 0x12E6D, size: 0x8, addend: 0x0, symName: __ZNSt3__16vectorIP7ClusterNS_9allocatorIS2_EEE26__swap_out_circular_bufferERNS_14__split_bufferIS2_RS4_EE, symObjAddr: 0x8000, symBinAddr: 0x10000BC60, symSize: 0x130 }
  - { offsetInCU: 0x12EC4, offset: 0x12EC4, size: 0x8, addend: 0x0, symName: __ZNSt3__16vectorINS0_IfNS_9allocatorIfEEEENS1_IS3_EEE26__swap_out_circular_bufferERNS_14__split_bufferIS3_RS4_EE, symObjAddr: 0x9660, symBinAddr: 0x10000D2C0, symSize: 0x130 }
  - { offsetInCU: 0x132EB, offset: 0x132EB, size: 0x8, addend: 0x0, symName: __ZNSt3__16vectorI4DataNS_9allocatorIS1_EEE26__swap_out_circular_bufferERNS_14__split_bufferIS1_RS3_EE, symObjAddr: 0xE0F0, symBinAddr: 0x100011D50, symSize: 0x130 }
  - { offsetInCU: 0x1558F, offset: 0x1558F, size: 0x8, addend: 0x0, symName: __ZN4DataC2Ev, symObjAddr: 0x0, symBinAddr: 0x100003C60, symSize: 0x70 }
  - { offsetInCU: 0x155BB, offset: 0x155BB, size: 0x8, addend: 0x0, symName: __ZNSt3__16vectorIfNS_9allocatorIfEEEC1B7v160006Ev, symObjAddr: 0x70, symBinAddr: 0x100003CD0, symSize: 0x20 }
  - { offsetInCU: 0x155E5, offset: 0x155E5, size: 0x8, addend: 0x0, symName: __ZNSt3__16vectorIfNS_9allocatorIfEEE6resizeEm, symObjAddr: 0x90, symBinAddr: 0x100003CF0, symSize: 0x80 }
  - { offsetInCU: 0x1562B, offset: 0x1562B, size: 0x8, addend: 0x0, symName: __ZNSt3__16vectorIfNS_9allocatorIfEEED1B7v160006Ev, symObjAddr: 0x110, symBinAddr: 0x100003D70, symSize: 0x20 }
  - { offsetInCU: 0x15655, offset: 0x15655, size: 0x8, addend: 0x0, symName: __ZN4DataC1Ev, symObjAddr: 0x130, symBinAddr: 0x100003D90, symSize: 0x20 }
  - { offsetInCU: 0x15681, offset: 0x15681, size: 0x8, addend: 0x0, symName: __ZN4DataC2EffNSt3__16vectorIfNS0_9allocatorIfEEEE, symObjAddr: 0x150, symBinAddr: 0x100003DB0, symSize: 0x80 }
  - { offsetInCU: 0x156D8, offset: 0x156D8, size: 0x8, addend: 0x0, symName: __ZNSt3__16vectorIfNS_9allocatorIfEEEaSB7v160006ERKS3_, symObjAddr: 0x1D0, symBinAddr: 0x100003E30, symSize: 0x60 }
  - { offsetInCU: 0x1570F, offset: 0x1570F, size: 0x8, addend: 0x0, symName: __ZN4DataC1EffNSt3__16vectorIfNS0_9allocatorIfEEEE, symObjAddr: 0x230, symBinAddr: 0x100003E90, symSize: 0x40 }
  - { offsetInCU: 0x15873, offset: 0x15873, size: 0x8, addend: 0x0, symName: __ZN8QuadtreeC2Ev, symObjAddr: 0x270, symBinAddr: 0x100003ED0, symSize: 0x40 }
  - { offsetInCU: 0x1589F, offset: 0x1589F, size: 0x8, addend: 0x0, symName: __ZN5PointC1Ev, symObjAddr: 0x2B0, symBinAddr: 0x100003F10, symSize: 0x20 }
  - { offsetInCU: 0x158C9, offset: 0x158C9, size: 0x8, addend: 0x0, symName: __ZN8QuadtreeC1Ev, symObjAddr: 0x2D0, symBinAddr: 0x100003F30, symSize: 0x20 }
  - { offsetInCU: 0x158F5, offset: 0x158F5, size: 0x8, addend: 0x0, symName: __ZN8QuadtreeC2ERK5PointRf, symObjAddr: 0x2F0, symBinAddr: 0x100003F50, symSize: 0xC0 }
  - { offsetInCU: 0x15951, offset: 0x15951, size: 0x8, addend: 0x0, symName: __ZN8QuadtreeC1ERK5PointRf, symObjAddr: 0x3B0, symBinAddr: 0x100004010, symSize: 0x30 }
  - { offsetInCU: 0x15999, offset: 0x15999, size: 0x8, addend: 0x0, symName: __ZN8Quadtree7OutsideERK4Data, symObjAddr: 0x3E0, symBinAddr: 0x100004040, symSize: 0xA0 }
  - { offsetInCU: 0x159CE, offset: 0x159CE, size: 0x8, addend: 0x0, symName: __ZN8Quadtree6InsertERK4Data, symObjAddr: 0x480, symBinAddr: 0x1000040E0, symSize: 0x4F0 }
  - { offsetInCU: 0x15A9F, offset: 0x15A9F, size: 0x8, addend: 0x0, symName: __ZN5PointC1Eff, symObjAddr: 0x970, symBinAddr: 0x1000045D0, symSize: 0x30 }
  - { offsetInCU: 0x15AE5, offset: 0x15AE5, size: 0x8, addend: 0x0, symName: __ZNSt3__16vectorIfNS_9allocatorIfEEEC1ERKS3_, symObjAddr: 0x9A0, symBinAddr: 0x100004600, symSize: 0x30 }
  - { offsetInCU: 0x15B20, offset: 0x15B20, size: 0x8, addend: 0x0, symName: __ZN4DataD1Ev, symObjAddr: 0x9D0, symBinAddr: 0x100004630, symSize: 0x20 }
  - { offsetInCU: 0x15B4B, offset: 0x15B4B, size: 0x8, addend: 0x0, symName: __Z11distanciaEuNSt3__16vectorIfNS_9allocatorIfEEEES3_, symObjAddr: 0x9F0, symBinAddr: 0x100004650, symSize: 0xB0 }
  - { offsetInCU: 0x15BB3, offset: 0x15BB3, size: 0x8, addend: 0x0, symName: __ZNKSt3__16vectorIfNS_9allocatorIfEEE4sizeB7v160006Ev, symObjAddr: 0xAA0, symBinAddr: 0x100004700, symSize: 0x20 }
  - { offsetInCU: 0x15BD9, offset: 0x15BD9, size: 0x8, addend: 0x0, symName: __ZNSt3__16vectorIfNS_9allocatorIfEEEixB7v160006Em, symObjAddr: 0xAF0, symBinAddr: 0x100004750, symSize: 0x20 }
  - { offsetInCU: 0x15C0F, offset: 0x15C0F, size: 0x8, addend: 0x0, symName: __Z4sqrtB7v160006IiENSt3__19enable_ifIXsr3std11is_integralIT_EE5valueEdE4typeES2_, symObjAddr: 0xB10, symBinAddr: 0x100004770, symSize: 0x20 }
  - { offsetInCU: 0x15C46, offset: 0x15C46, size: 0x8, addend: 0x0, symName: __Z8nuevoCenNSt3__16vectorINS0_IfNS_9allocatorIfEEEENS1_IS3_EEEE, symObjAddr: 0xB30, symBinAddr: 0x100004790, symSize: 0x130 }
  - { offsetInCU: 0x15CED, offset: 0x15CED, size: 0x8, addend: 0x0, symName: __ZNKSt3__16vectorINS0_IfNS_9allocatorIfEEEENS1_IS3_EEE4sizeB7v160006Ev, symObjAddr: 0xC60, symBinAddr: 0x1000048C0, symSize: 0x30 }
  - { offsetInCU: 0x15D13, offset: 0x15D13, size: 0x8, addend: 0x0, symName: __ZNSt3__16vectorINS0_IfNS_9allocatorIfEEEENS1_IS3_EEEixB7v160006Em, symObjAddr: 0xC90, symBinAddr: 0x1000048F0, symSize: 0x20 }
  - { offsetInCU: 0x15D4A, offset: 0x15D4A, size: 0x8, addend: 0x0, symName: __ZNSt3__16vectorIfNS_9allocatorIfEEE9push_backB7v160006EOf, symObjAddr: 0xCB0, symBinAddr: 0x100004910, symSize: 0x60 }
  - { offsetInCU: 0x15D81, offset: 0x15D81, size: 0x8, addend: 0x0, symName: __ZN7ClusterC2Ev, symObjAddr: 0xD10, symBinAddr: 0x100004970, symSize: 0xB0 }
  - { offsetInCU: 0x15DAD, offset: 0x15DAD, size: 0x8, addend: 0x0, symName: __ZNSt3__16vectorINS0_IfNS_9allocatorIfEEEENS1_IS3_EEEC1B7v160006Ev, symObjAddr: 0xDC0, symBinAddr: 0x100004A20, symSize: 0x20 }
  - { offsetInCU: 0x15DD7, offset: 0x15DD7, size: 0x8, addend: 0x0, symName: __ZN9KmeanTreeC1Ev, symObjAddr: 0xDE0, symBinAddr: 0x100004A40, symSize: 0x20 }
  - { offsetInCU: 0x15E03, offset: 0x15E03, size: 0x8, addend: 0x0, symName: __ZNSt3__16vectorINS0_IfNS_9allocatorIfEEEENS1_IS3_EEED1B7v160006Ev, symObjAddr: 0xE00, symBinAddr: 0x100004A60, symSize: 0x20 }
  - { offsetInCU: 0x15E2D, offset: 0x15E2D, size: 0x8, addend: 0x0, symName: __ZN7ClusterC1Ev, symObjAddr: 0xE20, symBinAddr: 0x100004A80, symSize: 0x20 }
  - { offsetInCU: 0x15E59, offset: 0x15E59, size: 0x8, addend: 0x0, symName: __ZN9KmeanTreeC2Ev, symObjAddr: 0xE40, symBinAddr: 0x100004AA0, symSize: 0x60 }
  - { offsetInCU: 0x15E85, offset: 0x15E85, size: 0x8, addend: 0x0, symName: __ZNSt3__16vectorIP7ClusterNS_9allocatorIS2_EEEC1B7v160006Ev, symObjAddr: 0xEA0, symBinAddr: 0x100004B00, symSize: 0x20 }
  - { offsetInCU: 0x15EAF, offset: 0x15EAF, size: 0x8, addend: 0x0, symName: __ZNSt3__16vectorIP7ClusterNS_9allocatorIS2_EEE6resizeEm, symObjAddr: 0xEC0, symBinAddr: 0x100004B20, symSize: 0x80 }
  - { offsetInCU: 0x15EF5, offset: 0x15EF5, size: 0x8, addend: 0x0, symName: __ZNSt3__16vectorIP7ClusterNS_9allocatorIS2_EEED1B7v160006Ev, symObjAddr: 0xF40, symBinAddr: 0x100004BA0, symSize: 0x20 }
  - { offsetInCU: 0x15F1F, offset: 0x15F1F, size: 0x8, addend: 0x0, symName: __ZN9KmeanTreeC2Ei, symObjAddr: 0xF60, symBinAddr: 0x100004BC0, symSize: 0xE0 }
  - { offsetInCU: 0x15F6D, offset: 0x15F6D, size: 0x8, addend: 0x0, symName: __ZNSt3__16vectorIP7ClusterNS_9allocatorIS2_EEEixB7v160006Em, symObjAddr: 0x1040, symBinAddr: 0x100004CA0, symSize: 0x20 }
  - { offsetInCU: 0x15FA4, offset: 0x15FA4, size: 0x8, addend: 0x0, symName: __ZN9KmeanTreeC1Ei, symObjAddr: 0x1060, symBinAddr: 0x100004CC0, symSize: 0x30 }
  - { offsetInCU: 0x15FDE, offset: 0x15FDE, size: 0x8, addend: 0x0, symName: __ZN9KmeanTree6InsertERKNSt3__16vectorINS1_IfNS0_9allocatorIfEEEENS2_IS4_EEEE, symObjAddr: 0x1090, symBinAddr: 0x100004CF0, symSize: 0x480 }
  - { offsetInCU: 0x160AD, offset: 0x160AD, size: 0x8, addend: 0x0, symName: __ZNKSt3__16vectorINS0_IfNS_9allocatorIfEEEENS1_IS3_EEEixB7v160006Em, symObjAddr: 0x1510, symBinAddr: 0x100005170, symSize: 0x20 }
  - { offsetInCU: 0x160E4, offset: 0x160E4, size: 0x8, addend: 0x0, symName: __ZNKSt3__16vectorIP7ClusterNS_9allocatorIS2_EEE4sizeB7v160006Ev, symObjAddr: 0x1530, symBinAddr: 0x100005190, symSize: 0x20 }
  - { offsetInCU: 0x1610A, offset: 0x1610A, size: 0x8, addend: 0x0, symName: __ZNSt3__16vectorINS0_IfNS_9allocatorIfEEEENS1_IS3_EEE9push_backB7v160006ERKS3_, symObjAddr: 0x1550, symBinAddr: 0x1000051B0, symSize: 0x60 }
  - { offsetInCU: 0x16141, offset: 0x16141, size: 0x8, addend: 0x0, symName: __ZNSt3__16vectorINS0_IfNS_9allocatorIfEEEENS1_IS3_EEEC1ERKS5_, symObjAddr: 0x15B0, symBinAddr: 0x100005210, symSize: 0x30 }
  - { offsetInCU: 0x1617C, offset: 0x1617C, size: 0x8, addend: 0x0, symName: __ZNSt3__16vectorIfNS_9allocatorIfEEEaSB7v160006EOS3_, symObjAddr: 0x15E0, symBinAddr: 0x100005240, symSize: 0x30 }
  - { offsetInCU: 0x161B2, offset: 0x161B2, size: 0x8, addend: 0x0, symName: __Z9centroideNSt3__16vectorINS0_IfNS_9allocatorIfEEEENS1_IS3_EEEE, symObjAddr: 0x1610, symBinAddr: 0x100005270, symSize: 0xF0 }
  - { offsetInCU: 0x1620C, offset: 0x1620C, size: 0x8, addend: 0x0, symName: __ZNSt3__16vectorINS0_IfNS_9allocatorIfEEEENS1_IS3_EEEC1Em, symObjAddr: 0x1700, symBinAddr: 0x100005360, symSize: 0x30 }
  - { offsetInCU: 0x16246, offset: 0x16246, size: 0x8, addend: 0x0, symName: __Z19distanciaEuclidianaNSt3__16vectorIfNS_9allocatorIfEEEES3_, symObjAddr: 0x1730, symBinAddr: 0x100005390, symSize: 0xB0 }
  - { offsetInCU: 0x162AD, offset: 0x162AD, size: 0x8, addend: 0x0, symName: __Z14nuevoCentroideNSt3__16vectorINS0_IfNS_9allocatorIfEEEENS1_IS3_EEEE, symObjAddr: 0x17E0, symBinAddr: 0x100005440, symSize: 0x130 }
  - { offsetInCU: 0x16353, offset: 0x16353, size: 0x8, addend: 0x0, symName: __Z7hallarANSt3__16vectorIfNS_9allocatorIfEEEENS0_IS3_NS1_IS3_EEEE, symObjAddr: 0x1910, symBinAddr: 0x100005570, symSize: 0x1B0 }
  - { offsetInCU: 0x163B1, offset: 0x163B1, size: 0x8, addend: 0x0, symName: __Z7hallarBNSt3__16vectorIfNS_9allocatorIfEEEENS0_IS3_NS1_IS3_EEEENS0_IS5_NS1_IS5_EEEES3_, symObjAddr: 0x1B50, symBinAddr: 0x1000057B0, symSize: 0x400 }
  - { offsetInCU: 0x1647C, offset: 0x1647C, size: 0x8, addend: 0x0, symName: __ZNSt3__16vectorINS0_INS0_IfNS_9allocatorIfEEEENS1_IS3_EEEENS1_IS5_EEEixB7v160006Em, symObjAddr: 0x1F50, symBinAddr: 0x100005BB0, symSize: 0x20 }
  - { offsetInCU: 0x164B2, offset: 0x164B2, size: 0x8, addend: 0x0, symName: __Z2SCff, symObjAddr: 0x1F70, symBinAddr: 0x100005BD0, symSize: 0x90 }
  - { offsetInCU: 0x164EC, offset: 0x164EC, size: 0x8, addend: 0x0, symName: __Z8hallarSCNSt3__16vectorINS0_IfNS_9allocatorIfEEEENS1_IS3_EEEES5_NS0_IS5_NS1_IS5_EEEES3_, symObjAddr: 0x2000, symBinAddr: 0x100005C60, symSize: 0x330 }
  - { offsetInCU: 0x1658C, offset: 0x1658C, size: 0x8, addend: 0x0, symName: __ZNSt3__16vectorINS0_INS0_IfNS_9allocatorIfEEEENS1_IS3_EEEENS1_IS5_EEEC1ERKS7_, symObjAddr: 0x2330, symBinAddr: 0x100005F90, symSize: 0x30 }
  - { offsetInCU: 0x165C7, offset: 0x165C7, size: 0x8, addend: 0x0, symName: __ZNSt3__16vectorINS0_INS0_IfNS_9allocatorIfEEEENS1_IS3_EEEENS1_IS5_EEED1B7v160006Ev, symObjAddr: 0x2360, symBinAddr: 0x100005FC0, symSize: 0x20 }
  - { offsetInCU: 0x165F0, offset: 0x165F0, size: 0x8, addend: 0x0, symName: __Z7siluetaNSt3__16vectorINS0_IfNS_9allocatorIfEEEENS1_IS3_EEEE, symObjAddr: 0x2380, symBinAddr: 0x100005FE0, symSize: 0x590 }
  - { offsetInCU: 0x16707, offset: 0x16707, size: 0x8, addend: 0x0, symName: __ZNSt3__16vectorINS0_INS0_IfNS_9allocatorIfEEEENS1_IS3_EEEENS1_IS5_EEEC1Em, symObjAddr: 0x2910, symBinAddr: 0x100006570, symSize: 0x30 }
  - { offsetInCU: 0x16742, offset: 0x16742, size: 0x8, addend: 0x0, symName: __ZNSt3__16vectorIfNS_9allocatorIfEEEC1Em, symObjAddr: 0x2940, symBinAddr: 0x1000065A0, symSize: 0x30 }
  - { offsetInCU: 0x1677C, offset: 0x1677C, size: 0x8, addend: 0x0, symName: __Z3absB7v160006f, symObjAddr: 0x2970, symBinAddr: 0x1000065D0, symSize: 0x20 }
  - { offsetInCU: 0x167A9, offset: 0x167A9, size: 0x8, addend: 0x0, symName: _main, symObjAddr: 0x2990, symBinAddr: 0x1000065F0, symSize: 0x7E0 }
  - { offsetInCU: 0x1699A, offset: 0x1699A, size: 0x8, addend: 0x0, symName: __ZNSt3__114basic_ifstreamIcNS_11char_traitsIcEEEC1EPKcj, symObjAddr: 0x3170, symBinAddr: 0x100006DD0, symSize: 0x160 }
  - { offsetInCU: 0x169E4, offset: 0x169E4, size: 0x8, addend: 0x0, symName: __ZNSt3__112basic_stringIcNS_11char_traitsIcEENS_9allocatorIcEEEC1B7v160006Ev, symObjAddr: 0x32D0, symBinAddr: 0x100006F30, symSize: 0x20 }
  - { offsetInCU: 0x16A0E, offset: 0x16A0E, size: 0x8, addend: 0x0, symName: __ZNSt3__16vectorI4DataNS_9allocatorIS1_EEEC1B7v160006Ev, symObjAddr: 0x32F0, symBinAddr: 0x100006F50, symSize: 0x20 }
  - { offsetInCU: 0x16A38, offset: 0x16A38, size: 0x8, addend: 0x0, symName: __ZNKSt3__19basic_iosIcNS_11char_traitsIcEEEcvbB7v160006Ev, symObjAddr: 0x3360, symBinAddr: 0x100006FC0, symSize: 0x30 }
  - { offsetInCU: 0x16A90, offset: 0x16A90, size: 0x8, addend: 0x0, symName: __ZNSt3__118basic_stringstreamIcNS_11char_traitsIcEENS_9allocatorIcEEEC1B7v160006ERKNS_12basic_stringIcS2_S4_EEj, symObjAddr: 0x3390, symBinAddr: 0x100006FF0, symSize: 0x100 }
  - { offsetInCU: 0x16AD8, offset: 0x16AD8, size: 0x8, addend: 0x0, symName: __ZNSt3__119basic_istringstreamIcNS_11char_traitsIcEENS_9allocatorIcEEEC1B7v160006ERKNS_12basic_stringIcS2_S4_EEj, symObjAddr: 0x36E0, symBinAddr: 0x100007340, symSize: 0xE0 }
  - { offsetInCU: 0x16B25, offset: 0x16B25, size: 0x8, addend: 0x0, symName: __ZNSt3__119basic_istringstreamIcNS_11char_traitsIcEENS_9allocatorIcEEED1Ev, symObjAddr: 0x37C0, symBinAddr: 0x100007420, symSize: 0x40 }
  - { offsetInCU: 0x16B52, offset: 0x16B52, size: 0x8, addend: 0x0, symName: __ZNSt3__16vectorIfNS_9allocatorIfEEE9push_backB7v160006ERKf, symObjAddr: 0x3800, symBinAddr: 0x100007460, symSize: 0x60 }
  - { offsetInCU: 0x16B89, offset: 0x16B89, size: 0x8, addend: 0x0, symName: __ZNSt3__16vectorI4DataNS_9allocatorIS1_EEE9push_backB7v160006ERKS1_, symObjAddr: 0x38C0, symBinAddr: 0x100007520, symSize: 0x60 }
  - { offsetInCU: 0x16BC5, offset: 0x16BC5, size: 0x8, addend: 0x0, symName: __ZNSt3__118basic_stringstreamIcNS_11char_traitsIcEENS_9allocatorIcEEED1Ev, symObjAddr: 0x3920, symBinAddr: 0x100007580, symSize: 0x40 }
  - { offsetInCU: 0x16BF2, offset: 0x16BF2, size: 0x8, addend: 0x0, symName: __ZNKSt3__16vectorI4DataNS_9allocatorIS1_EEE4sizeB7v160006Ev, symObjAddr: 0x3960, symBinAddr: 0x1000075C0, symSize: 0x20 }
  - { offsetInCU: 0x16C18, offset: 0x16C18, size: 0x8, addend: 0x0, symName: __ZNSt3__16vectorI4DataNS_9allocatorIS1_EEEixB7v160006Em, symObjAddr: 0x3980, symBinAddr: 0x1000075E0, symSize: 0x20 }
  - { offsetInCU: 0x16C4F, offset: 0x16C4F, size: 0x8, addend: 0x0, symName: __ZNSt3__114basic_ifstreamIcNS_11char_traitsIcEEE5closeEv, symObjAddr: 0x39A0, symBinAddr: 0x100007600, symSize: 0x50 }
  - { offsetInCU: 0x16C77, offset: 0x16C77, size: 0x8, addend: 0x0, symName: __ZN9KmeanTreeD1Ev, symObjAddr: 0x39F0, symBinAddr: 0x100007650, symSize: 0x20 }
  - { offsetInCU: 0x16CA3, offset: 0x16CA3, size: 0x8, addend: 0x0, symName: __ZNSt3__16vectorI4DataNS_9allocatorIS1_EEED1B7v160006Ev, symObjAddr: 0x3A10, symBinAddr: 0x100007670, symSize: 0x20 }
  - { offsetInCU: 0x16CD2, offset: 0x16CD2, size: 0x8, addend: 0x0, symName: __ZNSt3__114basic_ifstreamIcNS_11char_traitsIcEEED1Ev, symObjAddr: 0x3A30, symBinAddr: 0x100007690, symSize: 0x40 }
  - { offsetInCU: 0x16CFF, offset: 0x16CFF, size: 0x8, addend: 0x0, symName: __ZN5PointC2Ev, symObjAddr: 0x3A70, symBinAddr: 0x1000076D0, symSize: 0x20 }
  - { offsetInCU: 0x16D29, offset: 0x16D29, size: 0x8, addend: 0x0, symName: __ZN5PointC2Eff, symObjAddr: 0x3A90, symBinAddr: 0x1000076F0, symSize: 0x30 }
  - { offsetInCU: 0x16D6F, offset: 0x16D6F, size: 0x8, addend: 0x0, symName: __ZN4DataD2Ev, symObjAddr: 0x3AC0, symBinAddr: 0x100007720, symSize: 0x20 }
  - { offsetInCU: 0x16D9B, offset: 0x16D9B, size: 0x8, addend: 0x0, symName: __ZNSt3__119basic_istringstreamIcNS_11char_traitsIcEENS_9allocatorIcEEED2Ev, symObjAddr: 0x3AE0, symBinAddr: 0x100007740, symSize: 0x60 }
  - { offsetInCU: 0x16DD5, offset: 0x16DD5, size: 0x8, addend: 0x0, symName: __ZTv0_n24_NSt3__119basic_istringstreamIcNS_11char_traitsIcEENS_9allocatorIcEEED1Ev, symObjAddr: 0x3B40, symBinAddr: 0x1000077A0, symSize: 0x20 }
  - { offsetInCU: 0x16DF1, offset: 0x16DF1, size: 0x8, addend: 0x0, symName: __ZNSt3__115basic_stringbufIcNS_11char_traitsIcEENS_9allocatorIcEEED1Ev, symObjAddr: 0x3B60, symBinAddr: 0x1000077C0, symSize: 0x20 }
  - { offsetInCU: 0x16E1E, offset: 0x16E1E, size: 0x8, addend: 0x0, symName: __ZNSt3__115basic_stringbufIcNS_11char_traitsIcEENS_9allocatorIcEEED2Ev, symObjAddr: 0x3B80, symBinAddr: 0x1000077E0, symSize: 0x40 }
  - { offsetInCU: 0x16E55, offset: 0x16E55, size: 0x8, addend: 0x0, symName: __ZNKSt3__16__lessIffEclB7v160006ERKfS3_, symObjAddr: 0x3C10, symBinAddr: 0x100007870, symSize: 0x30 }
  - { offsetInCU: 0x16E97, offset: 0x16E97, size: 0x8, addend: 0x0, symName: __ZNSt3__118basic_stringstreamIcNS_11char_traitsIcEENS_9allocatorIcEEED2Ev, symObjAddr: 0x3C90, symBinAddr: 0x1000078F0, symSize: 0x60 }
  - { offsetInCU: 0x16ED1, offset: 0x16ED1, size: 0x8, addend: 0x0, symName: __ZThn16_NSt3__118basic_stringstreamIcNS_11char_traitsIcEENS_9allocatorIcEEED1Ev, symObjAddr: 0x3CF0, symBinAddr: 0x100007950, symSize: 0x20 }
  - { offsetInCU: 0x16EE8, offset: 0x16EE8, size: 0x8, addend: 0x0, symName: __ZTv0_n24_NSt3__118basic_stringstreamIcNS_11char_traitsIcEENS_9allocatorIcEEED1Ev, symObjAddr: 0x3D10, symBinAddr: 0x100007970, symSize: 0x20 }
  - { offsetInCU: 0x16EFF, offset: 0x16EFF, size: 0x8, addend: 0x0, symName: __ZN9KmeanTreeD2Ev, symObjAddr: 0x3D30, symBinAddr: 0x100007990, symSize: 0x20 }
  - { offsetInCU: 0x16F2B, offset: 0x16F2B, size: 0x8, addend: 0x0, symName: __ZNSt3__114basic_ifstreamIcNS_11char_traitsIcEEED2Ev, symObjAddr: 0x3D50, symBinAddr: 0x1000079B0, symSize: 0x60 }
  - { offsetInCU: 0x16F65, offset: 0x16F65, size: 0x8, addend: 0x0, symName: __ZTv0_n24_NSt3__114basic_ifstreamIcNS_11char_traitsIcEEED1Ev, symObjAddr: 0x3DB0, symBinAddr: 0x100007A10, symSize: 0x20 }
  - { offsetInCU: 0x16F7C, offset: 0x16F7C, size: 0x8, addend: 0x0, symName: __ZNSt3__112basic_stringIcNS_11char_traitsIcEENS_9allocatorIcEEEC2B7v160006Ev, symObjAddr: 0x3DD0, symBinAddr: 0x100007A30, symSize: 0x50 }
  - { offsetInCU: 0x16FAB, offset: 0x16FAB, size: 0x8, addend: 0x0, symName: __ZNSt3__117__compressed_pairINS_12basic_stringIcNS_11char_traitsIcEENS_9allocatorIcEEE5__repES5_EC1B7v160006INS_18__default_init_tagESA_EEOT_OT0_, symObjAddr: 0x3E20, symBinAddr: 0x100007A80, symSize: 0x30 }
  - { offsetInCU: 0x17003, offset: 0x17003, size: 0x8, addend: 0x0, symName: __ZNSt3__112basic_stringIcNS_11char_traitsIcEENS_9allocatorIcEEE14__default_initB7v160006Ev, symObjAddr: 0x3E70, symBinAddr: 0x100007AD0, symSize: 0x50 }
  - { offsetInCU: 0x17029, offset: 0x17029, size: 0x8, addend: 0x0, symName: __ZNSt3__117__compressed_pairINS_12basic_stringIcNS_11char_traitsIcEENS_9allocatorIcEEE5__repES5_EC2B7v160006INS_18__default_init_tagESA_EEOT_OT0_, symObjAddr: 0x3EC0, symBinAddr: 0x100007B20, symSize: 0x30 }
  - { offsetInCU: 0x17081, offset: 0x17081, size: 0x8, addend: 0x0, symName: __ZNSt3__122__compressed_pair_elemINS_12basic_stringIcNS_11char_traitsIcEENS_9allocatorIcEEE5__repELi0ELb0EEC2B7v160006ENS_18__default_init_tagE, symObjAddr: 0x3EF0, symBinAddr: 0x100007B50, symSize: 0x10 }
  - { offsetInCU: 0x170B5, offset: 0x170B5, size: 0x8, addend: 0x0, symName: __ZNSt3__122__compressed_pair_elemINS_9allocatorIcEELi1ELb1EEC2B7v160006ENS_18__default_init_tagE, symObjAddr: 0x3F00, symBinAddr: 0x100007B60, symSize: 0x20 }
  - { offsetInCU: 0x170E9, offset: 0x170E9, size: 0x8, addend: 0x0, symName: __ZNSt3__19allocatorIcEC2B7v160006Ev, symObjAddr: 0x3F20, symBinAddr: 0x100007B80, symSize: 0x20 }
  - { offsetInCU: 0x17113, offset: 0x17113, size: 0x8, addend: 0x0, symName: __ZNSt3__116__non_trivial_ifILb1ENS_9allocatorIcEEEC2B7v160006Ev, symObjAddr: 0x3F40, symBinAddr: 0x100007BA0, symSize: 0x10 }
  - { offsetInCU: 0x1713D, offset: 0x1713D, size: 0x8, addend: 0x0, symName: __ZNSt3__117__compressed_pairINS_12basic_stringIcNS_11char_traitsIcEENS_9allocatorIcEEE5__repES5_E5firstB7v160006Ev, symObjAddr: 0x3F50, symBinAddr: 0x100007BB0, symSize: 0x20 }
  - { offsetInCU: 0x17163, offset: 0x17163, size: 0x8, addend: 0x0, symName: __ZNSt3__122__compressed_pair_elemINS_12basic_stringIcNS_11char_traitsIcEENS_9allocatorIcEEE5__repELi0ELb0EE5__getB7v160006Ev, symObjAddr: 0x3F70, symBinAddr: 0x100007BD0, symSize: 0x10 }
  - { offsetInCU: 0x17189, offset: 0x17189, size: 0x8, addend: 0x0, symName: __ZNSt3__16vectorIfNS_9allocatorIfEEEC2B7v160006Ev, symObjAddr: 0x3F80, symBinAddr: 0x100007BE0, symSize: 0x60 }
  - { offsetInCU: 0x171B8, offset: 0x171B8, size: 0x8, addend: 0x0, symName: __ZNSt3__117__compressed_pairIPfNS_9allocatorIfEEEC1B7v160006IDnNS_18__default_init_tagEEEOT_OT0_, symObjAddr: 0x3FE0, symBinAddr: 0x100007C40, symSize: 0x30 }
  - { offsetInCU: 0x17210, offset: 0x17210, size: 0x8, addend: 0x0, symName: __ZNSt3__117__compressed_pairIPfNS_9allocatorIfEEEC2B7v160006IDnNS_18__default_init_tagEEEOT_OT0_, symObjAddr: 0x4020, symBinAddr: 0x100007C80, symSize: 0x40 }
  - { offsetInCU: 0x17268, offset: 0x17268, size: 0x8, addend: 0x0, symName: __ZNSt3__122__compressed_pair_elemIPfLi0ELb0EEC2B7v160006IDnvEEOT_, symObjAddr: 0x4060, symBinAddr: 0x100007CC0, symSize: 0x20 }
  - { offsetInCU: 0x172AA, offset: 0x172AA, size: 0x8, addend: 0x0, symName: __ZNSt3__122__compressed_pair_elemINS_9allocatorIfEELi1ELb1EEC2B7v160006ENS_18__default_init_tagE, symObjAddr: 0x4080, symBinAddr: 0x100007CE0, symSize: 0x20 }
  - { offsetInCU: 0x172DE, offset: 0x172DE, size: 0x8, addend: 0x0, symName: __ZNSt3__19allocatorIfEC2B7v160006Ev, symObjAddr: 0x40A0, symBinAddr: 0x100007D00, symSize: 0x20 }
  - { offsetInCU: 0x17308, offset: 0x17308, size: 0x8, addend: 0x0, symName: __ZNSt3__116__non_trivial_ifILb1ENS_9allocatorIfEEEC2B7v160006Ev, symObjAddr: 0x40C0, symBinAddr: 0x100007D20, symSize: 0x10 }
  - { offsetInCU: 0x17332, offset: 0x17332, size: 0x8, addend: 0x0, symName: __ZNSt3__16vectorIfNS_9allocatorIfEEED2B7v160006Ev, symObjAddr: 0x40D0, symBinAddr: 0x100007D30, symSize: 0x40 }
  - { offsetInCU: 0x1735C, offset: 0x1735C, size: 0x8, addend: 0x0, symName: __ZNSt3__16vectorIfNS_9allocatorIfEEE16__destroy_vectorC1ERS3_, symObjAddr: 0x4110, symBinAddr: 0x100007D70, symSize: 0x30 }
  - { offsetInCU: 0x17395, offset: 0x17395, size: 0x8, addend: 0x0, symName: __ZNSt3__16vectorIfNS_9allocatorIfEEE16__destroy_vectorclB7v160006Ev, symObjAddr: 0x4140, symBinAddr: 0x100007DA0, symSize: 0x90 }
  - { offsetInCU: 0x173BB, offset: 0x173BB, size: 0x8, addend: 0x0, symName: __ZNSt3__16vectorIfNS_9allocatorIfEEE16__destroy_vectorC2ERS3_, symObjAddr: 0x41D0, symBinAddr: 0x100007E30, symSize: 0x20 }
  - { offsetInCU: 0x173F4, offset: 0x173F4, size: 0x8, addend: 0x0, symName: __ZNKSt3__16vectorIfNS_9allocatorIfEEE17__annotate_deleteB7v160006Ev, symObjAddr: 0x41F0, symBinAddr: 0x100007E50, symSize: 0xB0 }
  - { offsetInCU: 0x1741A, offset: 0x1741A, size: 0x8, addend: 0x0, symName: __ZNSt3__16vectorIfNS_9allocatorIfEEE7__clearB7v160006Ev, symObjAddr: 0x42B0, symBinAddr: 0x100007F10, symSize: 0x20 }
  - { offsetInCU: 0x17440, offset: 0x17440, size: 0x8, addend: 0x0, symName: __ZNSt3__116allocator_traitsINS_9allocatorIfEEE10deallocateB7v160006ERS2_Pfm, symObjAddr: 0x42D0, symBinAddr: 0x100007F30, symSize: 0x30 }
  - { offsetInCU: 0x17482, offset: 0x17482, size: 0x8, addend: 0x0, symName: __ZNSt3__16vectorIfNS_9allocatorIfEEE7__allocB7v160006Ev, symObjAddr: 0x4300, symBinAddr: 0x100007F60, symSize: 0x20 }
  - { offsetInCU: 0x174A8, offset: 0x174A8, size: 0x8, addend: 0x0, symName: __ZNKSt3__16vectorIfNS_9allocatorIfEEE8capacityB7v160006Ev, symObjAddr: 0x4320, symBinAddr: 0x100007F80, symSize: 0x30 }
  - { offsetInCU: 0x174CE, offset: 0x174CE, size: 0x8, addend: 0x0, symName: __ZNKSt3__16vectorIfNS_9allocatorIfEEE31__annotate_contiguous_containerB7v160006EPKvS5_S5_S5_, symObjAddr: 0x4350, symBinAddr: 0x100007FB0, symSize: 0x20 }
  - { offsetInCU: 0x17520, offset: 0x17520, size: 0x8, addend: 0x0, symName: __ZNKSt3__16vectorIfNS_9allocatorIfEEE4dataB7v160006Ev, symObjAddr: 0x4370, symBinAddr: 0x100007FD0, symSize: 0x20 }
  - { offsetInCU: 0x17546, offset: 0x17546, size: 0x8, addend: 0x0, symName: __ZNSt3__16vectorIfNS_9allocatorIfEEE22__base_destruct_at_endB7v160006EPf, symObjAddr: 0x43A0, symBinAddr: 0x100008000, symSize: 0x80 }
  - { offsetInCU: 0x1758A, offset: 0x1758A, size: 0x8, addend: 0x0, symName: __ZNSt3__116allocator_traitsINS_9allocatorIfEEE7destroyB7v160006IfvEEvRS2_PT_, symObjAddr: 0x4420, symBinAddr: 0x100008080, symSize: 0x30 }
  - { offsetInCU: 0x175C7, offset: 0x175C7, size: 0x8, addend: 0x0, symName: __ZNSt3__19allocatorIfE7destroyB7v160006EPf, symObjAddr: 0x4450, symBinAddr: 0x1000080B0, symSize: 0x10 }
  - { offsetInCU: 0x175FB, offset: 0x175FB, size: 0x8, addend: 0x0, symName: __ZNSt3__19allocatorIfE10deallocateB7v160006EPfm, symObjAddr: 0x4460, symBinAddr: 0x1000080C0, symSize: 0x40 }
  - { offsetInCU: 0x1763D, offset: 0x1763D, size: 0x8, addend: 0x0, symName: __ZNSt3__117__compressed_pairIPfNS_9allocatorIfEEE6secondB7v160006Ev, symObjAddr: 0x4510, symBinAddr: 0x100008170, symSize: 0x20 }
  - { offsetInCU: 0x17663, offset: 0x17663, size: 0x8, addend: 0x0, symName: __ZNSt3__122__compressed_pair_elemINS_9allocatorIfEELi1ELb1EE5__getB7v160006Ev, symObjAddr: 0x4530, symBinAddr: 0x100008190, symSize: 0x10 }
  - { offsetInCU: 0x17689, offset: 0x17689, size: 0x8, addend: 0x0, symName: __ZNKSt3__16vectorIfNS_9allocatorIfEEE9__end_capB7v160006Ev, symObjAddr: 0x4540, symBinAddr: 0x1000081A0, symSize: 0x20 }
  - { offsetInCU: 0x176AF, offset: 0x176AF, size: 0x8, addend: 0x0, symName: __ZNKSt3__117__compressed_pairIPfNS_9allocatorIfEEE5firstB7v160006Ev, symObjAddr: 0x4560, symBinAddr: 0x1000081C0, symSize: 0x20 }
  - { offsetInCU: 0x176D5, offset: 0x176D5, size: 0x8, addend: 0x0, symName: __ZNKSt3__122__compressed_pair_elemIPfLi0ELb0EE5__getB7v160006Ev, symObjAddr: 0x4580, symBinAddr: 0x1000081E0, symSize: 0x10 }
  - { offsetInCU: 0x176FB, offset: 0x176FB, size: 0x8, addend: 0x0, symName: __ZNSt3__16vectorIfNS_9allocatorIfEEE8__appendEm, symObjAddr: 0x4590, symBinAddr: 0x1000081F0, symSize: 0x100 }
  - { offsetInCU: 0x17756, offset: 0x17756, size: 0x8, addend: 0x0, symName: __ZNSt3__16vectorIfNS_9allocatorIfEEE17__destruct_at_endB7v160006EPf, symObjAddr: 0x4690, symBinAddr: 0x1000082F0, symSize: 0x60 }
  - { offsetInCU: 0x1779A, offset: 0x1779A, size: 0x8, addend: 0x0, symName: __ZNSt3__16vectorIfNS_9allocatorIfEEE9__end_capB7v160006Ev, symObjAddr: 0x46F0, symBinAddr: 0x100008350, symSize: 0x20 }
  - { offsetInCU: 0x177C0, offset: 0x177C0, size: 0x8, addend: 0x0, symName: __ZNSt3__16vectorIfNS_9allocatorIfEEE18__construct_at_endEm, symObjAddr: 0x4710, symBinAddr: 0x100008370, symSize: 0xC0 }
  - { offsetInCU: 0x17833, offset: 0x17833, size: 0x8, addend: 0x0, symName: __ZNKSt3__16vectorIfNS_9allocatorIfEEE11__recommendB7v160006Em, symObjAddr: 0x47D0, symBinAddr: 0x100008430, symSize: 0xA0 }
  - { offsetInCU: 0x17888, offset: 0x17888, size: 0x8, addend: 0x0, symName: __ZNSt3__114__split_bufferIfRNS_9allocatorIfEEEC1EmmS3_, symObjAddr: 0x4870, symBinAddr: 0x1000084D0, symSize: 0x40 }
  - { offsetInCU: 0x178DE, offset: 0x178DE, size: 0x8, addend: 0x0, symName: __ZNSt3__114__split_bufferIfRNS_9allocatorIfEEE18__construct_at_endEm, symObjAddr: 0x48B0, symBinAddr: 0x100008510, symSize: 0xB0 }
  - { offsetInCU: 0x17921, offset: 0x17921, size: 0x8, addend: 0x0, symName: __ZNSt3__114__split_bufferIfRNS_9allocatorIfEEED1Ev, symObjAddr: 0x4A90, symBinAddr: 0x1000086F0, symSize: 0x20 }
  - { offsetInCU: 0x1794D, offset: 0x1794D, size: 0x8, addend: 0x0, symName: __ZNSt3__117__compressed_pairIPfNS_9allocatorIfEEE5firstB7v160006Ev, symObjAddr: 0x4AB0, symBinAddr: 0x100008710, symSize: 0x20 }
  - { offsetInCU: 0x17973, offset: 0x17973, size: 0x8, addend: 0x0, symName: __ZNSt3__122__compressed_pair_elemIPfLi0ELb0EE5__getB7v160006Ev, symObjAddr: 0x4AD0, symBinAddr: 0x100008730, symSize: 0x10 }
  - { offsetInCU: 0x179B2, offset: 0x179B2, size: 0x8, addend: 0x0, symName: __ZNSt3__16vectorIfNS_9allocatorIfEEE21_ConstructTransactionC1B7v160006ERS3_m, symObjAddr: 0x4AE0, symBinAddr: 0x100008740, symSize: 0x30 }
  - { offsetInCU: 0x179FA, offset: 0x179FA, size: 0x8, addend: 0x0, symName: __ZNSt3__116allocator_traitsINS_9allocatorIfEEE9constructB7v160006IfJEvEEvRS2_PT_DpOT0_, symObjAddr: 0x4B10, symBinAddr: 0x100008770, symSize: 0x30 }
  - { offsetInCU: 0x17A3C, offset: 0x17A3C, size: 0x8, addend: 0x0, symName: __ZNSt3__16vectorIfNS_9allocatorIfEEE21_ConstructTransactionD1B7v160006Ev, symObjAddr: 0x4B40, symBinAddr: 0x1000087A0, symSize: 0x20 }
  - { offsetInCU: 0x17A66, offset: 0x17A66, size: 0x8, addend: 0x0, symName: __ZNSt3__16vectorIfNS_9allocatorIfEEE21_ConstructTransactionC2B7v160006ERS3_m, symObjAddr: 0x4B60, symBinAddr: 0x1000087C0, symSize: 0x40 }
  - { offsetInCU: 0x17AAE, offset: 0x17AAE, size: 0x8, addend: 0x0, symName: __ZNSt3__19allocatorIfE9constructB7v160006IfJEEEvPT_DpOT0_, symObjAddr: 0x4BA0, symBinAddr: 0x100008800, symSize: 0x20 }
  - { offsetInCU: 0x17AF0, offset: 0x17AF0, size: 0x8, addend: 0x0, symName: __ZNSt3__16vectorIfNS_9allocatorIfEEE21_ConstructTransactionD2B7v160006Ev, symObjAddr: 0x4BC0, symBinAddr: 0x100008820, symSize: 0x20 }
  - { offsetInCU: 0x17B1A, offset: 0x17B1A, size: 0x8, addend: 0x0, symName: __ZNKSt3__16vectorIfNS_9allocatorIfEEE8max_sizeEv, symObjAddr: 0x4BE0, symBinAddr: 0x100008840, symSize: 0x60 }
  - { offsetInCU: 0x17B42, offset: 0x17B42, size: 0x8, addend: 0x0, symName: __ZNKSt3__16vectorIfNS_9allocatorIfEEE20__throw_length_errorB7v160006Ev, symObjAddr: 0x4C40, symBinAddr: 0x1000088A0, symSize: 0x20 }
  - { offsetInCU: 0x17B72, offset: 0x17B72, size: 0x8, addend: 0x0, symName: __ZNSt3__116allocator_traitsINS_9allocatorIfEEE8max_sizeB7v160006IS2_vEEmRKS2_, symObjAddr: 0x4CC0, symBinAddr: 0x100008920, symSize: 0x20 }
  - { offsetInCU: 0x17BA0, offset: 0x17BA0, size: 0x8, addend: 0x0, symName: __ZNKSt3__16vectorIfNS_9allocatorIfEEE7__allocB7v160006Ev, symObjAddr: 0x4CE0, symBinAddr: 0x100008940, symSize: 0x20 }
  - { offsetInCU: 0x17BC6, offset: 0x17BC6, size: 0x8, addend: 0x0, symName: __ZNSt3__114numeric_limitsIlE3maxB7v160006Ev, symObjAddr: 0x4D00, symBinAddr: 0x100008960, symSize: 0x10 }
  - { offsetInCU: 0x17BEE, offset: 0x17BEE, size: 0x8, addend: 0x0, symName: __ZNKSt3__16__lessImmEclB7v160006ERKmS3_, symObjAddr: 0x4D60, symBinAddr: 0x1000089C0, symSize: 0x30 }
  - { offsetInCU: 0x17C30, offset: 0x17C30, size: 0x8, addend: 0x0, symName: __ZNKSt3__19allocatorIfE8max_sizeB7v160006Ev, symObjAddr: 0x4D90, symBinAddr: 0x1000089F0, symSize: 0x20 }
  - { offsetInCU: 0x17C56, offset: 0x17C56, size: 0x8, addend: 0x0, symName: __ZNKSt3__117__compressed_pairIPfNS_9allocatorIfEEE6secondB7v160006Ev, symObjAddr: 0x4DB0, symBinAddr: 0x100008A10, symSize: 0x20 }
  - { offsetInCU: 0x17C7C, offset: 0x17C7C, size: 0x8, addend: 0x0, symName: __ZNKSt3__122__compressed_pair_elemINS_9allocatorIfEELi1ELb1EE5__getB7v160006Ev, symObjAddr: 0x4DD0, symBinAddr: 0x100008A30, symSize: 0x10 }
  - { offsetInCU: 0x17CA2, offset: 0x17CA2, size: 0x8, addend: 0x0, symName: __ZNSt3__123__libcpp_numeric_limitsIlLb1EE3maxB7v160006Ev, symObjAddr: 0x4DE0, symBinAddr: 0x100008A40, symSize: 0x10 }
  - { offsetInCU: 0x17CB6, offset: 0x17CB6, size: 0x8, addend: 0x0, symName: __ZNSt12length_errorC1B7v160006EPKc, symObjAddr: 0x4E60, symBinAddr: 0x100008AC0, symSize: 0x30 }
  - { offsetInCU: 0x17CEE, offset: 0x17CEE, size: 0x8, addend: 0x0, symName: __ZNSt12length_errorC2B7v160006EPKc, symObjAddr: 0x4E90, symBinAddr: 0x100008AF0, symSize: 0x40 }
  - { offsetInCU: 0x17D26, offset: 0x17D26, size: 0x8, addend: 0x0, symName: __ZNSt3__114__split_bufferIfRNS_9allocatorIfEEEC2EmmS3_, symObjAddr: 0x4F20, symBinAddr: 0x100008B80, symSize: 0xD0 }
  - { offsetInCU: 0x17D9A, offset: 0x17D9A, size: 0x8, addend: 0x0, symName: __ZNSt3__117__compressed_pairIPfRNS_9allocatorIfEEEC1B7v160006IDnS4_EEOT_OT0_, symObjAddr: 0x4FF0, symBinAddr: 0x100008C50, symSize: 0x30 }
  - { offsetInCU: 0x17DF2, offset: 0x17DF2, size: 0x8, addend: 0x0, symName: __ZNSt3__114__split_bufferIfRNS_9allocatorIfEEE7__allocB7v160006Ev, symObjAddr: 0x5060, symBinAddr: 0x100008CC0, symSize: 0x20 }
  - { offsetInCU: 0x17E18, offset: 0x17E18, size: 0x8, addend: 0x0, symName: __ZNSt3__114__split_bufferIfRNS_9allocatorIfEEE9__end_capB7v160006Ev, symObjAddr: 0x5080, symBinAddr: 0x100008CE0, symSize: 0x20 }
  - { offsetInCU: 0x17E3E, offset: 0x17E3E, size: 0x8, addend: 0x0, symName: __ZNSt3__117__compressed_pairIPfRNS_9allocatorIfEEEC2B7v160006IDnS4_EEOT_OT0_, symObjAddr: 0x50A0, symBinAddr: 0x100008D00, symSize: 0x40 }
  - { offsetInCU: 0x17E96, offset: 0x17E96, size: 0x8, addend: 0x0, symName: __ZNSt3__122__compressed_pair_elemIRNS_9allocatorIfEELi1ELb0EEC2B7v160006IS3_vEEOT_, symObjAddr: 0x50E0, symBinAddr: 0x100008D40, symSize: 0x20 }
  - { offsetInCU: 0x17ED8, offset: 0x17ED8, size: 0x8, addend: 0x0, symName: __ZNSt3__19allocatorIfE8allocateB7v160006Em, symObjAddr: 0x5100, symBinAddr: 0x100008D60, symSize: 0x50 }
  - { offsetInCU: 0x17F0C, offset: 0x17F0C, size: 0x8, addend: 0x0, symName: __ZNSt3__117__compressed_pairIPfRNS_9allocatorIfEEE6secondB7v160006Ev, symObjAddr: 0x51D0, symBinAddr: 0x100008E30, symSize: 0x20 }
  - { offsetInCU: 0x17F32, offset: 0x17F32, size: 0x8, addend: 0x0, symName: __ZNSt3__122__compressed_pair_elemIRNS_9allocatorIfEELi1ELb0EE5__getB7v160006Ev, symObjAddr: 0x51F0, symBinAddr: 0x100008E50, symSize: 0x20 }
  - { offsetInCU: 0x17F58, offset: 0x17F58, size: 0x8, addend: 0x0, symName: __ZNSt3__117__compressed_pairIPfRNS_9allocatorIfEEE5firstB7v160006Ev, symObjAddr: 0x5210, symBinAddr: 0x100008E70, symSize: 0x20 }
  - { offsetInCU: 0x17F88, offset: 0x17F88, size: 0x8, addend: 0x0, symName: __ZNSt3__114__split_bufferIfRNS_9allocatorIfEEE21_ConstructTransactionC1B7v160006EPPfm, symObjAddr: 0x5230, symBinAddr: 0x100008E90, symSize: 0x30 }
  - { offsetInCU: 0x17FCE, offset: 0x17FCE, size: 0x8, addend: 0x0, symName: __ZNSt3__114__split_bufferIfRNS_9allocatorIfEEE21_ConstructTransactionD1B7v160006Ev, symObjAddr: 0x5260, symBinAddr: 0x100008EC0, symSize: 0x20 }
  - { offsetInCU: 0x17FF8, offset: 0x17FF8, size: 0x8, addend: 0x0, symName: __ZNSt3__114__split_bufferIfRNS_9allocatorIfEEE21_ConstructTransactionC2B7v160006EPPfm, symObjAddr: 0x5280, symBinAddr: 0x100008EE0, symSize: 0x40 }
  - { offsetInCU: 0x1803E, offset: 0x1803E, size: 0x8, addend: 0x0, symName: __ZNSt3__114__split_bufferIfRNS_9allocatorIfEEE21_ConstructTransactionD2B7v160006Ev, symObjAddr: 0x52C0, symBinAddr: 0x100008F20, symSize: 0x20 }
  - { offsetInCU: 0x18068, offset: 0x18068, size: 0x8, addend: 0x0, symName: __ZNSt3__116reverse_iteratorIPfEC1B7v160006ES1_, symObjAddr: 0x5350, symBinAddr: 0x100008FB0, symSize: 0x30 }
  - { offsetInCU: 0x180A0, offset: 0x180A0, size: 0x8, addend: 0x0, symName: __ZNKSt3__116reverse_iteratorIPfE4baseB7v160006Ev, symObjAddr: 0x5380, symBinAddr: 0x100008FE0, symSize: 0x20 }
  - { offsetInCU: 0x180C6, offset: 0x180C6, size: 0x8, addend: 0x0, symName: __ZNKSt3__16vectorIfNS_9allocatorIfEEE14__annotate_newB7v160006Em, symObjAddr: 0x53E0, symBinAddr: 0x100009040, symSize: 0xB0 }
  - { offsetInCU: 0x1811E, offset: 0x1811E, size: 0x8, addend: 0x0, symName: __ZNKSt3__111__move_loopINS_17_ClassicAlgPolicyEEclB7v160006INS_16reverse_iteratorIPfEES6_S6_EENS_4pairIT_T1_EES8_T0_S9_, symObjAddr: 0x58E0, symBinAddr: 0x100009540, symSize: 0xA0 }
  - { offsetInCU: 0x1818E, offset: 0x1818E, size: 0x8, addend: 0x0, symName: __ZNSt3__18_IterOpsINS_17_ClassicAlgPolicyEE11__iter_moveB7v160006IRNS_16reverse_iteratorIPfEEEENS_9enable_ifIXsr12is_referenceIDTdeclsr3stdE7declvalIRT_EEEEE5valueEDTclsr3stdE4movedeclsr3stdE7declvalISA_EEEEE4typeEOS9_, symObjAddr: 0x5B00, symBinAddr: 0x100009760, symSize: 0x20 }
  - { offsetInCU: 0x181BA, offset: 0x181BA, size: 0x8, addend: 0x0, symName: __ZNKSt3__116reverse_iteratorIPfEdeB7v160006Ev, symObjAddr: 0x5B20, symBinAddr: 0x100009780, symSize: 0x30 }
  - { offsetInCU: 0x181EE, offset: 0x181EE, size: 0x8, addend: 0x0, symName: __ZNSt3__116reverse_iteratorIPfEppB7v160006Ev, symObjAddr: 0x5B50, symBinAddr: 0x1000097B0, symSize: 0x20 }
  - { offsetInCU: 0x18214, offset: 0x18214, size: 0x8, addend: 0x0, symName: __ZNSt3__18_IterOpsINS_17_ClassicAlgPolicyEE25__validate_iter_referenceB7v160006IRNS_16reverse_iteratorIPfEEEEvv, symObjAddr: 0x5B70, symBinAddr: 0x1000097D0, symSize: 0x10 }
  - { offsetInCU: 0x18232, offset: 0x18232, size: 0x8, addend: 0x0, symName: __ZNSt3__118__unwrap_iter_implINS_16reverse_iteratorIPfEELb0EE8__unwrapB7v160006ES3_, symObjAddr: 0x5B80, symBinAddr: 0x1000097E0, symSize: 0x20 }
  - { offsetInCU: 0x1825A, offset: 0x1825A, size: 0x8, addend: 0x0, symName: __ZNSt3__14pairINS_16reverse_iteratorIPfEES3_EC1B7v160006IS3_S3_LPv0EEEOT_OT0_, symObjAddr: 0x5BA0, symBinAddr: 0x100009800, symSize: 0x30 }
  - { offsetInCU: 0x182B8, offset: 0x182B8, size: 0x8, addend: 0x0, symName: __ZNSt3__14pairINS_16reverse_iteratorIPfEES3_EC2B7v160006IS3_S3_LPv0EEEOT_OT0_, symObjAddr: 0x5BD0, symBinAddr: 0x100009830, symSize: 0x40 }
  - { offsetInCU: 0x18316, offset: 0x18316, size: 0x8, addend: 0x0, symName: __ZNSt3__118__unwrap_iter_implINS_16reverse_iteratorIPfEELb0EE8__rewrapB7v160006ES3_S3_, symObjAddr: 0x5C10, symBinAddr: 0x100009870, symSize: 0x30 }
  - { offsetInCU: 0x18343, offset: 0x18343, size: 0x8, addend: 0x0, symName: __ZNSt3__116reverse_iteratorIPfEC2B7v160006ES1_, symObjAddr: 0x5C40, symBinAddr: 0x1000098A0, symSize: 0x30 }
  - { offsetInCU: 0x1837B, offset: 0x1837B, size: 0x8, addend: 0x0, symName: __ZNSt3__114__split_bufferIfRNS_9allocatorIfEEED2Ev, symObjAddr: 0x5C70, symBinAddr: 0x1000098D0, symSize: 0x70 }
  - { offsetInCU: 0x183A7, offset: 0x183A7, size: 0x8, addend: 0x0, symName: __ZNSt3__114__split_bufferIfRNS_9allocatorIfEEE5clearB7v160006Ev, symObjAddr: 0x5CE0, symBinAddr: 0x100009940, symSize: 0x20 }
  - { offsetInCU: 0x183CD, offset: 0x183CD, size: 0x8, addend: 0x0, symName: __ZNKSt3__114__split_bufferIfRNS_9allocatorIfEEE8capacityB7v160006Ev, symObjAddr: 0x5D00, symBinAddr: 0x100009960, symSize: 0x30 }
  - { offsetInCU: 0x183F3, offset: 0x183F3, size: 0x8, addend: 0x0, symName: __ZNSt3__114__split_bufferIfRNS_9allocatorIfEEE17__destruct_at_endB7v160006EPf, symObjAddr: 0x5D30, symBinAddr: 0x100009990, symSize: 0x30 }
  - { offsetInCU: 0x18427, offset: 0x18427, size: 0x8, addend: 0x0, symName: __ZNSt3__114__split_bufferIfRNS_9allocatorIfEEE17__destruct_at_endB7v160006EPfNS_17integral_constantIbLb0EEE, symObjAddr: 0x5D60, symBinAddr: 0x1000099C0, symSize: 0x80 }
  - { offsetInCU: 0x18467, offset: 0x18467, size: 0x8, addend: 0x0, symName: __ZNKSt3__114__split_bufferIfRNS_9allocatorIfEEE9__end_capB7v160006Ev, symObjAddr: 0x5DE0, symBinAddr: 0x100009A40, symSize: 0x20 }
  - { offsetInCU: 0x1848D, offset: 0x1848D, size: 0x8, addend: 0x0, symName: __ZNKSt3__117__compressed_pairIPfRNS_9allocatorIfEEE5firstB7v160006Ev, symObjAddr: 0x5E00, symBinAddr: 0x100009A60, symSize: 0x20 }
  - { offsetInCU: 0x184B3, offset: 0x184B3, size: 0x8, addend: 0x0, symName: __ZNSt3__16vectorIfNS_9allocatorIfEEE27__invalidate_iterators_pastB7v160006EPf, symObjAddr: 0x5E20, symBinAddr: 0x100009A80, symSize: 0x10 }
  - { offsetInCU: 0x184EA, offset: 0x184EA, size: 0x8, addend: 0x0, symName: __ZNKSt3__16vectorIfNS_9allocatorIfEEE17__annotate_shrinkB7v160006Em, symObjAddr: 0x5E30, symBinAddr: 0x100009A90, symSize: 0xA0 }
  - { offsetInCU: 0x1851F, offset: 0x1851F, size: 0x8, addend: 0x0, symName: __ZNSt3__16vectorIfNS_9allocatorIfEEE19__copy_assign_allocB7v160006ERKS3_, symObjAddr: 0x5ED0, symBinAddr: 0x100009B30, symSize: 0x30 }
  - { offsetInCU: 0x18554, offset: 0x18554, size: 0x8, addend: 0x0, symName: __ZNSt3__16vectorIfNS_9allocatorIfEEE6assignIPfLi0EEEvT_S6_, symObjAddr: 0x5F00, symBinAddr: 0x100009B60, symSize: 0x160 }
  - { offsetInCU: 0x185F4, offset: 0x185F4, size: 0x8, addend: 0x0, symName: __ZNSt3__16vectorIfNS_9allocatorIfEEE19__copy_assign_allocB7v160006ERKS3_NS_17integral_constantIbLb0EEE, symObjAddr: 0x6060, symBinAddr: 0x100009CC0, symSize: 0x10 }
  - { offsetInCU: 0x18630, offset: 0x18630, size: 0x8, addend: 0x0, symName: __ZNSt3__16vectorIfNS_9allocatorIfEEE18__construct_at_endIPfLi0EEEvT_S6_m, symObjAddr: 0x6130, symBinAddr: 0x100009D90, symSize: 0x90 }
  - { offsetInCU: 0x186A3, offset: 0x186A3, size: 0x8, addend: 0x0, symName: __ZNSt3__16vectorIfNS_9allocatorIfEEE13__vdeallocateEv, symObjAddr: 0x61C0, symBinAddr: 0x100009E20, symSize: 0x80 }
  - { offsetInCU: 0x186CB, offset: 0x186CB, size: 0x8, addend: 0x0, symName: __ZNSt3__16vectorIfNS_9allocatorIfEEE11__vallocateB7v160006Em, symObjAddr: 0x6240, symBinAddr: 0x100009EA0, symSize: 0xA0 }
  - { offsetInCU: 0x18732, offset: 0x18732, size: 0x8, addend: 0x0, symName: __ZNKSt3__114__copy_trivialclB7v160006IffLi0EEENS_4pairIPT_PT0_EES4_S4_S6_, symObjAddr: 0x64B0, symBinAddr: 0x10000A110, symSize: 0x40 }
  - { offsetInCU: 0x1879F, offset: 0x1879F, size: 0x8, addend: 0x0, symName: __ZNSt3__14pairIPfS1_EC1B7v160006IRS1_S1_LPv0EEEOT_OT0_, symObjAddr: 0x6650, symBinAddr: 0x10000A2B0, symSize: 0x30 }
  - { offsetInCU: 0x187FD, offset: 0x187FD, size: 0x8, addend: 0x0, symName: __ZNSt3__14pairIPfS1_EC2B7v160006IRS1_S1_LPv0EEEOT_OT0_, symObjAddr: 0x6680, symBinAddr: 0x10000A2E0, symSize: 0x30 }
  - { offsetInCU: 0x1885B, offset: 0x1885B, size: 0x8, addend: 0x0, symName: __ZNSt3__118__unwrap_iter_implIPfLb1EE8__unwrapB7v160006ES1_, symObjAddr: 0x66B0, symBinAddr: 0x10000A310, symSize: 0x20 }
  - { offsetInCU: 0x1887E, offset: 0x1887E, size: 0x8, addend: 0x0, symName: __ZNSt3__14pairIPfS1_EC1B7v160006IS1_S1_LPv0EEEOT_OT0_, symObjAddr: 0x66D0, symBinAddr: 0x10000A330, symSize: 0x30 }
  - { offsetInCU: 0x188DC, offset: 0x188DC, size: 0x8, addend: 0x0, symName: __ZNSt3__14pairIPfS1_EC2B7v160006IS1_S1_LPv0EEEOT_OT0_, symObjAddr: 0x6700, symBinAddr: 0x10000A360, symSize: 0x30 }
  - { offsetInCU: 0x1893A, offset: 0x1893A, size: 0x8, addend: 0x0, symName: __ZNSt3__118__unwrap_iter_implIPfLb1EE8__rewrapB7v160006ES1_S1_, symObjAddr: 0x6730, symBinAddr: 0x10000A390, symSize: 0x50 }
  - { offsetInCU: 0x1896B, offset: 0x1896B, size: 0x8, addend: 0x0, symName: __ZNSt3__129_AllocatorDestroyRangeReverseINS_9allocatorIfEEPfEC1B7v160006ERS2_RS3_S6_, symObjAddr: 0x68E0, symBinAddr: 0x10000A540, symSize: 0x40 }
  - { offsetInCU: 0x189C2, offset: 0x189C2, size: 0x8, addend: 0x0, symName: __ZNSt3__116allocator_traitsINS_9allocatorIfEEE9constructB7v160006IfJRfEvEEvRS2_PT_DpOT0_, symObjAddr: 0x6920, symBinAddr: 0x10000A580, symSize: 0x30 }
  - { offsetInCU: 0x18A19, offset: 0x18A19, size: 0x8, addend: 0x0, symName: __ZNSt3__128__exception_guard_exceptionsINS_29_AllocatorDestroyRangeReverseINS_9allocatorIfEEPfEEE10__completeB7v160006Ev, symObjAddr: 0x6950, symBinAddr: 0x10000A5B0, symSize: 0x20 }
  - { offsetInCU: 0x18A3F, offset: 0x18A3F, size: 0x8, addend: 0x0, symName: __ZNSt3__128__exception_guard_exceptionsINS_29_AllocatorDestroyRangeReverseINS_9allocatorIfEEPfEEED1B7v160006Ev, symObjAddr: 0x6970, symBinAddr: 0x10000A5D0, symSize: 0x20 }
  - { offsetInCU: 0x18A69, offset: 0x18A69, size: 0x8, addend: 0x0, symName: __ZNSt3__128__exception_guard_exceptionsINS_29_AllocatorDestroyRangeReverseINS_9allocatorIfEEPfEEEC1B7v160006ES5_, symObjAddr: 0x6990, symBinAddr: 0x10000A5F0, symSize: 0x40 }
  - { offsetInCU: 0x18AA1, offset: 0x18AA1, size: 0x8, addend: 0x0, symName: __ZNSt3__128__exception_guard_exceptionsINS_29_AllocatorDestroyRangeReverseINS_9allocatorIfEEPfEEEC2B7v160006ES5_, symObjAddr: 0x69D0, symBinAddr: 0x10000A630, symSize: 0x30 }
  - { offsetInCU: 0x18AD9, offset: 0x18AD9, size: 0x8, addend: 0x0, symName: __ZNSt3__129_AllocatorDestroyRangeReverseINS_9allocatorIfEEPfEC2B7v160006ERS2_RS3_S6_, symObjAddr: 0x6A00, symBinAddr: 0x10000A660, symSize: 0x40 }
  - { offsetInCU: 0x18B30, offset: 0x18B30, size: 0x8, addend: 0x0, symName: __ZNSt3__19allocatorIfE9constructB7v160006IfJRfEEEvPT_DpOT0_, symObjAddr: 0x6A40, symBinAddr: 0x10000A6A0, symSize: 0x30 }
  - { offsetInCU: 0x18B86, offset: 0x18B86, size: 0x8, addend: 0x0, symName: __ZNSt3__128__exception_guard_exceptionsINS_29_AllocatorDestroyRangeReverseINS_9allocatorIfEEPfEEED2B7v160006Ev, symObjAddr: 0x6A70, symBinAddr: 0x10000A6D0, symSize: 0x40 }
  - { offsetInCU: 0x18BB0, offset: 0x18BB0, size: 0x8, addend: 0x0, symName: __ZNKSt3__129_AllocatorDestroyRangeReverseINS_9allocatorIfEEPfEclB7v160006Ev, symObjAddr: 0x6AB0, symBinAddr: 0x10000A710, symSize: 0x60 }
  - { offsetInCU: 0x18BDB, offset: 0x18BDB, size: 0x8, addend: 0x0, symName: __ZNSt3__119__to_address_helperINS_16reverse_iteratorIPfEEvE6__callB7v160006ERKS3_, symObjAddr: 0x6BA0, symBinAddr: 0x10000A800, symSize: 0x40 }
  - { offsetInCU: 0x18BFE, offset: 0x18BFE, size: 0x8, addend: 0x0, symName: __ZNKSt3__116reverse_iteratorIPfEptB7v160006Ev, symObjAddr: 0x6BE0, symBinAddr: 0x10000A840, symSize: 0x20 }
  - { offsetInCU: 0x18C24, offset: 0x18C24, size: 0x8, addend: 0x0, symName: __ZNSt3__16vectorIfNS_9allocatorIfEEE5clearB7v160006Ev, symObjAddr: 0x6C00, symBinAddr: 0x10000A860, symSize: 0x50 }
  - { offsetInCU: 0x18C59, offset: 0x18C59, size: 0x8, addend: 0x0, symName: __ZNSt3__16vectorIfNS_9allocatorIfEEEC2ERKS3_, symObjAddr: 0x6C50, symBinAddr: 0x10000A8B0, symSize: 0x110 }
  - { offsetInCU: 0x18CB9, offset: 0x18CB9, size: 0x8, addend: 0x0, symName: __ZNSt3__116allocator_traitsINS_9allocatorIfEEE37select_on_container_copy_constructionB7v160006IS2_vvEES2_RKS2_, symObjAddr: 0x6D60, symBinAddr: 0x10000A9C0, symSize: 0x10 }
  - { offsetInCU: 0x18CED, offset: 0x18CED, size: 0x8, addend: 0x0, symName: __ZNSt3__117__compressed_pairIPfNS_9allocatorIfEEEC1B7v160006IDnS3_EEOT_OT0_, symObjAddr: 0x6D70, symBinAddr: 0x10000A9D0, symSize: 0x30 }
  - { offsetInCU: 0x18D45, offset: 0x18D45, size: 0x8, addend: 0x0, symName: __ZNSt3__128__exception_guard_exceptionsINS_6vectorIfNS_9allocatorIfEEE16__destroy_vectorEE10__completeB7v160006Ev, symObjAddr: 0x6DE0, symBinAddr: 0x10000AA40, symSize: 0x20 }
  - { offsetInCU: 0x18D6B, offset: 0x18D6B, size: 0x8, addend: 0x0, symName: __ZNSt3__128__exception_guard_exceptionsINS_6vectorIfNS_9allocatorIfEEE16__destroy_vectorEED1B7v160006Ev, symObjAddr: 0x6E00, symBinAddr: 0x10000AA60, symSize: 0x20 }
  - { offsetInCU: 0x18D95, offset: 0x18D95, size: 0x8, addend: 0x0, symName: __ZNSt3__117__compressed_pairIPfNS_9allocatorIfEEEC2B7v160006IDnS3_EEOT_OT0_, symObjAddr: 0x6E20, symBinAddr: 0x10000AA80, symSize: 0x40 }
  - { offsetInCU: 0x18DED, offset: 0x18DED, size: 0x8, addend: 0x0, symName: __ZNSt3__122__compressed_pair_elemINS_9allocatorIfEELi1ELb1EEC2B7v160006IS2_vEEOT_, symObjAddr: 0x6E60, symBinAddr: 0x10000AAC0, symSize: 0x10 }
  - { offsetInCU: 0x18E2F, offset: 0x18E2F, size: 0x8, addend: 0x0, symName: __ZNSt3__128__exception_guard_exceptionsINS_6vectorIfNS_9allocatorIfEEE16__destroy_vectorEEC1B7v160006ES5_, symObjAddr: 0x6E70, symBinAddr: 0x10000AAD0, symSize: 0x30 }
  - { offsetInCU: 0x18E67, offset: 0x18E67, size: 0x8, addend: 0x0, symName: __ZNSt3__128__exception_guard_exceptionsINS_6vectorIfNS_9allocatorIfEEE16__destroy_vectorEEC2B7v160006ES5_, symObjAddr: 0x6EA0, symBinAddr: 0x10000AB00, symSize: 0x20 }
  - { offsetInCU: 0x18E9F, offset: 0x18E9F, size: 0x8, addend: 0x0, symName: __ZNSt3__128__exception_guard_exceptionsINS_6vectorIfNS_9allocatorIfEEE16__destroy_vectorEED2B7v160006Ev, symObjAddr: 0x6EC0, symBinAddr: 0x10000AB20, symSize: 0x40 }
  - { offsetInCU: 0x18EC9, offset: 0x18EC9, size: 0x8, addend: 0x0, symName: __ZNSt3__16vectorIfNS_9allocatorIfEEE22__construct_one_at_endB7v160006IJfEEEvDpOT_, symObjAddr: 0x6F00, symBinAddr: 0x10000AB60, symSize: 0x90 }
  - { offsetInCU: 0x18F18, offset: 0x18F18, size: 0x8, addend: 0x0, symName: __ZNSt3__16vectorIfNS_9allocatorIfEEE21__push_back_slow_pathIfEEvOT_, symObjAddr: 0x6F90, symBinAddr: 0x10000ABF0, symSize: 0xD0 }
  - { offsetInCU: 0x18F76, offset: 0x18F76, size: 0x8, addend: 0x0, symName: __ZNSt3__116allocator_traitsINS_9allocatorIfEEE9constructB7v160006IfJfEvEEvRS2_PT_DpOT0_, symObjAddr: 0x7060, symBinAddr: 0x10000ACC0, symSize: 0x30 }
  - { offsetInCU: 0x18FCD, offset: 0x18FCD, size: 0x8, addend: 0x0, symName: __ZNSt3__19allocatorIfE9constructB7v160006IfJfEEEvPT_DpOT0_, symObjAddr: 0x7090, symBinAddr: 0x10000ACF0, symSize: 0x30 }
  - { offsetInCU: 0x19023, offset: 0x19023, size: 0x8, addend: 0x0, symName: __ZNSt3__16vectorINS0_IfNS_9allocatorIfEEEENS1_IS3_EEEC2B7v160006Ev, symObjAddr: 0x70C0, symBinAddr: 0x10000AD20, symSize: 0x60 }
  - { offsetInCU: 0x1904D, offset: 0x1904D, size: 0x8, addend: 0x0, symName: __ZNSt3__117__compressed_pairIPNS_6vectorIfNS_9allocatorIfEEEENS2_IS4_EEEC1B7v160006IDnNS_18__default_init_tagEEEOT_OT0_, symObjAddr: 0x7120, symBinAddr: 0x10000AD80, symSize: 0x30 }
  - { offsetInCU: 0x190A5, offset: 0x190A5, size: 0x8, addend: 0x0, symName: __ZNSt3__117__compressed_pairIPNS_6vectorIfNS_9allocatorIfEEEENS2_IS4_EEEC2B7v160006IDnNS_18__default_init_tagEEEOT_OT0_, symObjAddr: 0x7160, symBinAddr: 0x10000ADC0, symSize: 0x40 }
  - { offsetInCU: 0x190FD, offset: 0x190FD, size: 0x8, addend: 0x0, symName: __ZNSt3__122__compressed_pair_elemIPNS_6vectorIfNS_9allocatorIfEEEELi0ELb0EEC2B7v160006IDnvEEOT_, symObjAddr: 0x71A0, symBinAddr: 0x10000AE00, symSize: 0x20 }
  - { offsetInCU: 0x1913F, offset: 0x1913F, size: 0x8, addend: 0x0, symName: __ZNSt3__122__compressed_pair_elemINS_9allocatorINS_6vectorIfNS1_IfEEEEEELi1ELb1EEC2B7v160006ENS_18__default_init_tagE, symObjAddr: 0x71C0, symBinAddr: 0x10000AE20, symSize: 0x20 }
  - { offsetInCU: 0x19173, offset: 0x19173, size: 0x8, addend: 0x0, symName: __ZNSt3__19allocatorINS_6vectorIfNS0_IfEEEEEC2B7v160006Ev, symObjAddr: 0x71E0, symBinAddr: 0x10000AE40, symSize: 0x20 }
  - { offsetInCU: 0x1919D, offset: 0x1919D, size: 0x8, addend: 0x0, symName: __ZNSt3__116__non_trivial_ifILb1ENS_9allocatorINS_6vectorIfNS1_IfEEEEEEEC2B7v160006Ev, symObjAddr: 0x7200, symBinAddr: 0x10000AE60, symSize: 0x10 }
  - { offsetInCU: 0x191C7, offset: 0x191C7, size: 0x8, addend: 0x0, symName: __ZNSt3__16vectorINS0_IfNS_9allocatorIfEEEENS1_IS3_EEED2B7v160006Ev, symObjAddr: 0x7210, symBinAddr: 0x10000AE70, symSize: 0x40 }
  - { offsetInCU: 0x191F1, offset: 0x191F1, size: 0x8, addend: 0x0, symName: __ZNSt3__16vectorINS0_IfNS_9allocatorIfEEEENS1_IS3_EEE16__destroy_vectorC1ERS5_, symObjAddr: 0x7250, symBinAddr: 0x10000AEB0, symSize: 0x30 }
  - { offsetInCU: 0x1922A, offset: 0x1922A, size: 0x8, addend: 0x0, symName: __ZNSt3__16vectorINS0_IfNS_9allocatorIfEEEENS1_IS3_EEE16__destroy_vectorclB7v160006Ev, symObjAddr: 0x7280, symBinAddr: 0x10000AEE0, symSize: 0x90 }
  - { offsetInCU: 0x19250, offset: 0x19250, size: 0x8, addend: 0x0, symName: __ZNSt3__16vectorINS0_IfNS_9allocatorIfEEEENS1_IS3_EEE16__destroy_vectorC2ERS5_, symObjAddr: 0x7310, symBinAddr: 0x10000AF70, symSize: 0x20 }
  - { offsetInCU: 0x19289, offset: 0x19289, size: 0x8, addend: 0x0, symName: __ZNKSt3__16vectorINS0_IfNS_9allocatorIfEEEENS1_IS3_EEE17__annotate_deleteB7v160006Ev, symObjAddr: 0x7330, symBinAddr: 0x10000AF90, symSize: 0xB0 }
  - { offsetInCU: 0x192AF, offset: 0x192AF, size: 0x8, addend: 0x0, symName: __ZNSt3__16vectorINS0_IfNS_9allocatorIfEEEENS1_IS3_EEE7__clearB7v160006Ev, symObjAddr: 0x73F0, symBinAddr: 0x10000B050, symSize: 0x20 }
  - { offsetInCU: 0x192D5, offset: 0x192D5, size: 0x8, addend: 0x0, symName: __ZNSt3__116allocator_traitsINS_9allocatorINS_6vectorIfNS1_IfEEEEEEE10deallocateB7v160006ERS5_PS4_m, symObjAddr: 0x7410, symBinAddr: 0x10000B070, symSize: 0x30 }
  - { offsetInCU: 0x19317, offset: 0x19317, size: 0x8, addend: 0x0, symName: __ZNSt3__16vectorINS0_IfNS_9allocatorIfEEEENS1_IS3_EEE7__allocB7v160006Ev, symObjAddr: 0x7440, symBinAddr: 0x10000B0A0, symSize: 0x20 }
  - { offsetInCU: 0x1933D, offset: 0x1933D, size: 0x8, addend: 0x0, symName: __ZNKSt3__16vectorINS0_IfNS_9allocatorIfEEEENS1_IS3_EEE8capacityB7v160006Ev, symObjAddr: 0x7460, symBinAddr: 0x10000B0C0, symSize: 0x40 }
  - { offsetInCU: 0x19363, offset: 0x19363, size: 0x8, addend: 0x0, symName: __ZNKSt3__16vectorINS0_IfNS_9allocatorIfEEEENS1_IS3_EEE31__annotate_contiguous_containerB7v160006EPKvS7_S7_S7_, symObjAddr: 0x74A0, symBinAddr: 0x10000B100, symSize: 0x20 }
  - { offsetInCU: 0x193B5, offset: 0x193B5, size: 0x8, addend: 0x0, symName: __ZNKSt3__16vectorINS0_IfNS_9allocatorIfEEEENS1_IS3_EEE4dataB7v160006Ev, symObjAddr: 0x74C0, symBinAddr: 0x10000B120, symSize: 0x20 }
  - { offsetInCU: 0x193DB, offset: 0x193DB, size: 0x8, addend: 0x0, symName: __ZNSt3__16vectorINS0_IfNS_9allocatorIfEEEENS1_IS3_EEE22__base_destruct_at_endB7v160006EPS3_, symObjAddr: 0x74F0, symBinAddr: 0x10000B150, symSize: 0x80 }
  - { offsetInCU: 0x1941F, offset: 0x1941F, size: 0x8, addend: 0x0, symName: __ZNSt3__116allocator_traitsINS_9allocatorINS_6vectorIfNS1_IfEEEEEEE7destroyB7v160006IS4_vEEvRS5_PT_, symObjAddr: 0x7570, symBinAddr: 0x10000B1D0, symSize: 0x30 }
  - { offsetInCU: 0x1945C, offset: 0x1945C, size: 0x8, addend: 0x0, symName: __ZNSt3__19allocatorINS_6vectorIfNS0_IfEEEEE7destroyB7v160006EPS3_, symObjAddr: 0x75A0, symBinAddr: 0x10000B200, symSize: 0x20 }
  - { offsetInCU: 0x19490, offset: 0x19490, size: 0x8, addend: 0x0, symName: __ZNSt3__19allocatorINS_6vectorIfNS0_IfEEEEE10deallocateB7v160006EPS3_m, symObjAddr: 0x75C0, symBinAddr: 0x10000B220, symSize: 0x50 }
  - { offsetInCU: 0x194D2, offset: 0x194D2, size: 0x8, addend: 0x0, symName: __ZNSt3__117__compressed_pairIPNS_6vectorIfNS_9allocatorIfEEEENS2_IS4_EEE6secondB7v160006Ev, symObjAddr: 0x7610, symBinAddr: 0x10000B270, symSize: 0x20 }
  - { offsetInCU: 0x194F8, offset: 0x194F8, size: 0x8, addend: 0x0, symName: __ZNSt3__122__compressed_pair_elemINS_9allocatorINS_6vectorIfNS1_IfEEEEEELi1ELb1EE5__getB7v160006Ev, symObjAddr: 0x7630, symBinAddr: 0x10000B290, symSize: 0x10 }
  - { offsetInCU: 0x1951E, offset: 0x1951E, size: 0x8, addend: 0x0, symName: __ZNKSt3__16vectorINS0_IfNS_9allocatorIfEEEENS1_IS3_EEE9__end_capB7v160006Ev, symObjAddr: 0x7640, symBinAddr: 0x10000B2A0, symSize: 0x20 }
  - { offsetInCU: 0x19544, offset: 0x19544, size: 0x8, addend: 0x0, symName: __ZNKSt3__117__compressed_pairIPNS_6vectorIfNS_9allocatorIfEEEENS2_IS4_EEE5firstB7v160006Ev, symObjAddr: 0x7660, symBinAddr: 0x10000B2C0, symSize: 0x20 }
  - { offsetInCU: 0x1956A, offset: 0x1956A, size: 0x8, addend: 0x0, symName: __ZNKSt3__122__compressed_pair_elemIPNS_6vectorIfNS_9allocatorIfEEEELi0ELb0EE5__getB7v160006Ev, symObjAddr: 0x7680, symBinAddr: 0x10000B2E0, symSize: 0x10 }
  - { offsetInCU: 0x19590, offset: 0x19590, size: 0x8, addend: 0x0, symName: __ZNSt3__16vectorIP7ClusterNS_9allocatorIS2_EEEC2B7v160006Ev, symObjAddr: 0x7690, symBinAddr: 0x10000B2F0, symSize: 0x60 }
  - { offsetInCU: 0x195BA, offset: 0x195BA, size: 0x8, addend: 0x0, symName: __ZNSt3__117__compressed_pairIPP7ClusterNS_9allocatorIS2_EEEC1B7v160006IDnNS_18__default_init_tagEEEOT_OT0_, symObjAddr: 0x76F0, symBinAddr: 0x10000B350, symSize: 0x30 }
  - { offsetInCU: 0x19612, offset: 0x19612, size: 0x8, addend: 0x0, symName: __ZNSt3__117__compressed_pairIPP7ClusterNS_9allocatorIS2_EEEC2B7v160006IDnNS_18__default_init_tagEEEOT_OT0_, symObjAddr: 0x7730, symBinAddr: 0x10000B390, symSize: 0x40 }
  - { offsetInCU: 0x1966A, offset: 0x1966A, size: 0x8, addend: 0x0, symName: __ZNSt3__122__compressed_pair_elemIPP7ClusterLi0ELb0EEC2B7v160006IDnvEEOT_, symObjAddr: 0x7770, symBinAddr: 0x10000B3D0, symSize: 0x20 }
  - { offsetInCU: 0x196AC, offset: 0x196AC, size: 0x8, addend: 0x0, symName: __ZNSt3__122__compressed_pair_elemINS_9allocatorIP7ClusterEELi1ELb1EEC2B7v160006ENS_18__default_init_tagE, symObjAddr: 0x7790, symBinAddr: 0x10000B3F0, symSize: 0x20 }
  - { offsetInCU: 0x196E0, offset: 0x196E0, size: 0x8, addend: 0x0, symName: __ZNSt3__19allocatorIP7ClusterEC2B7v160006Ev, symObjAddr: 0x77B0, symBinAddr: 0x10000B410, symSize: 0x20 }
  - { offsetInCU: 0x1970A, offset: 0x1970A, size: 0x8, addend: 0x0, symName: __ZNSt3__116__non_trivial_ifILb1ENS_9allocatorIP7ClusterEEEC2B7v160006Ev, symObjAddr: 0x77D0, symBinAddr: 0x10000B430, symSize: 0x10 }
  - { offsetInCU: 0x19734, offset: 0x19734, size: 0x8, addend: 0x0, symName: __ZNSt3__16vectorIP7ClusterNS_9allocatorIS2_EEED2B7v160006Ev, symObjAddr: 0x77E0, symBinAddr: 0x10000B440, symSize: 0x40 }
  - { offsetInCU: 0x1975E, offset: 0x1975E, size: 0x8, addend: 0x0, symName: __ZNSt3__16vectorIP7ClusterNS_9allocatorIS2_EEE16__destroy_vectorC1ERS5_, symObjAddr: 0x7820, symBinAddr: 0x10000B480, symSize: 0x30 }
  - { offsetInCU: 0x19797, offset: 0x19797, size: 0x8, addend: 0x0, symName: __ZNSt3__16vectorIP7ClusterNS_9allocatorIS2_EEE16__destroy_vectorclB7v160006Ev, symObjAddr: 0x7850, symBinAddr: 0x10000B4B0, symSize: 0x90 }
  - { offsetInCU: 0x197BD, offset: 0x197BD, size: 0x8, addend: 0x0, symName: __ZNSt3__16vectorIP7ClusterNS_9allocatorIS2_EEE16__destroy_vectorC2ERS5_, symObjAddr: 0x78E0, symBinAddr: 0x10000B540, symSize: 0x20 }
  - { offsetInCU: 0x197F6, offset: 0x197F6, size: 0x8, addend: 0x0, symName: __ZNKSt3__16vectorIP7ClusterNS_9allocatorIS2_EEE17__annotate_deleteB7v160006Ev, symObjAddr: 0x7900, symBinAddr: 0x10000B560, symSize: 0xB0 }
  - { offsetInCU: 0x1981C, offset: 0x1981C, size: 0x8, addend: 0x0, symName: __ZNSt3__16vectorIP7ClusterNS_9allocatorIS2_EEE7__clearB7v160006Ev, symObjAddr: 0x79C0, symBinAddr: 0x10000B620, symSize: 0x20 }
  - { offsetInCU: 0x19842, offset: 0x19842, size: 0x8, addend: 0x0, symName: __ZNSt3__116allocator_traitsINS_9allocatorIP7ClusterEEE10deallocateB7v160006ERS4_PS3_m, symObjAddr: 0x79E0, symBinAddr: 0x10000B640, symSize: 0x30 }
  - { offsetInCU: 0x19884, offset: 0x19884, size: 0x8, addend: 0x0, symName: __ZNSt3__16vectorIP7ClusterNS_9allocatorIS2_EEE7__allocB7v160006Ev, symObjAddr: 0x7A10, symBinAddr: 0x10000B670, symSize: 0x20 }
  - { offsetInCU: 0x198AA, offset: 0x198AA, size: 0x8, addend: 0x0, symName: __ZNKSt3__16vectorIP7ClusterNS_9allocatorIS2_EEE8capacityB7v160006Ev, symObjAddr: 0x7A30, symBinAddr: 0x10000B690, symSize: 0x30 }
  - { offsetInCU: 0x198D0, offset: 0x198D0, size: 0x8, addend: 0x0, symName: __ZNKSt3__16vectorIP7ClusterNS_9allocatorIS2_EEE31__annotate_contiguous_containerB7v160006EPKvS7_S7_S7_, symObjAddr: 0x7A60, symBinAddr: 0x10000B6C0, symSize: 0x20 }
  - { offsetInCU: 0x19922, offset: 0x19922, size: 0x8, addend: 0x0, symName: __ZNKSt3__16vectorIP7ClusterNS_9allocatorIS2_EEE4dataB7v160006Ev, symObjAddr: 0x7A80, symBinAddr: 0x10000B6E0, symSize: 0x20 }
  - { offsetInCU: 0x19948, offset: 0x19948, size: 0x8, addend: 0x0, symName: __ZNSt3__16vectorIP7ClusterNS_9allocatorIS2_EEE22__base_destruct_at_endB7v160006EPS2_, symObjAddr: 0x7AB0, symBinAddr: 0x10000B710, symSize: 0x80 }
  - { offsetInCU: 0x1998C, offset: 0x1998C, size: 0x8, addend: 0x0, symName: __ZNSt3__116allocator_traitsINS_9allocatorIP7ClusterEEE7destroyB7v160006IS3_vEEvRS4_PT_, symObjAddr: 0x7B30, symBinAddr: 0x10000B790, symSize: 0x30 }
  - { offsetInCU: 0x199C9, offset: 0x199C9, size: 0x8, addend: 0x0, symName: __ZNSt3__19allocatorIP7ClusterE7destroyB7v160006EPS2_, symObjAddr: 0x7B60, symBinAddr: 0x10000B7C0, symSize: 0x10 }
  - { offsetInCU: 0x199FD, offset: 0x199FD, size: 0x8, addend: 0x0, symName: __ZNSt3__19allocatorIP7ClusterE10deallocateB7v160006EPS2_m, symObjAddr: 0x7B70, symBinAddr: 0x10000B7D0, symSize: 0x40 }
  - { offsetInCU: 0x19A3F, offset: 0x19A3F, size: 0x8, addend: 0x0, symName: __ZNSt3__117__compressed_pairIPP7ClusterNS_9allocatorIS2_EEE6secondB7v160006Ev, symObjAddr: 0x7BB0, symBinAddr: 0x10000B810, symSize: 0x20 }
  - { offsetInCU: 0x19A65, offset: 0x19A65, size: 0x8, addend: 0x0, symName: __ZNSt3__122__compressed_pair_elemINS_9allocatorIP7ClusterEELi1ELb1EE5__getB7v160006Ev, symObjAddr: 0x7BD0, symBinAddr: 0x10000B830, symSize: 0x10 }
  - { offsetInCU: 0x19A8B, offset: 0x19A8B, size: 0x8, addend: 0x0, symName: __ZNKSt3__16vectorIP7ClusterNS_9allocatorIS2_EEE9__end_capB7v160006Ev, symObjAddr: 0x7BE0, symBinAddr: 0x10000B840, symSize: 0x20 }
  - { offsetInCU: 0x19AB1, offset: 0x19AB1, size: 0x8, addend: 0x0, symName: __ZNKSt3__117__compressed_pairIPP7ClusterNS_9allocatorIS2_EEE5firstB7v160006Ev, symObjAddr: 0x7C00, symBinAddr: 0x10000B860, symSize: 0x20 }
  - { offsetInCU: 0x19AD7, offset: 0x19AD7, size: 0x8, addend: 0x0, symName: __ZNKSt3__122__compressed_pair_elemIPP7ClusterLi0ELb0EE5__getB7v160006Ev, symObjAddr: 0x7C20, symBinAddr: 0x10000B880, symSize: 0x10 }
  - { offsetInCU: 0x19AFD, offset: 0x19AFD, size: 0x8, addend: 0x0, symName: __ZNSt3__16vectorIP7ClusterNS_9allocatorIS2_EEE8__appendEm, symObjAddr: 0x7C30, symBinAddr: 0x10000B890, symSize: 0x100 }
  - { offsetInCU: 0x19B58, offset: 0x19B58, size: 0x8, addend: 0x0, symName: __ZNSt3__16vectorIP7ClusterNS_9allocatorIS2_EEE17__destruct_at_endB7v160006EPS2_, symObjAddr: 0x7D30, symBinAddr: 0x10000B990, symSize: 0x60 }
  - { offsetInCU: 0x19B9C, offset: 0x19B9C, size: 0x8, addend: 0x0, symName: __ZNSt3__16vectorIP7ClusterNS_9allocatorIS2_EEE9__end_capB7v160006Ev, symObjAddr: 0x7D90, symBinAddr: 0x10000B9F0, symSize: 0x20 }
  - { offsetInCU: 0x19BC2, offset: 0x19BC2, size: 0x8, addend: 0x0, symName: __ZNSt3__16vectorIP7ClusterNS_9allocatorIS2_EEE18__construct_at_endEm, symObjAddr: 0x7DB0, symBinAddr: 0x10000BA10, symSize: 0xC0 }
  - { offsetInCU: 0x19C35, offset: 0x19C35, size: 0x8, addend: 0x0, symName: __ZNKSt3__16vectorIP7ClusterNS_9allocatorIS2_EEE11__recommendB7v160006Em, symObjAddr: 0x7E70, symBinAddr: 0x10000BAD0, symSize: 0xA0 }
  - { offsetInCU: 0x19C8A, offset: 0x19C8A, size: 0x8, addend: 0x0, symName: __ZNSt3__114__split_bufferIP7ClusterRNS_9allocatorIS2_EEEC1EmmS5_, symObjAddr: 0x7F10, symBinAddr: 0x10000BB70, symSize: 0x40 }
  - { offsetInCU: 0x19CE0, offset: 0x19CE0, size: 0x8, addend: 0x0, symName: __ZNSt3__114__split_bufferIP7ClusterRNS_9allocatorIS2_EEE18__construct_at_endEm, symObjAddr: 0x7F50, symBinAddr: 0x10000BBB0, symSize: 0xB0 }
  - { offsetInCU: 0x19D23, offset: 0x19D23, size: 0x8, addend: 0x0, symName: __ZNSt3__114__split_bufferIP7ClusterRNS_9allocatorIS2_EEED1Ev, symObjAddr: 0x8130, symBinAddr: 0x10000BD90, symSize: 0x20 }
  - { offsetInCU: 0x19D4F, offset: 0x19D4F, size: 0x8, addend: 0x0, symName: __ZNSt3__117__compressed_pairIPP7ClusterNS_9allocatorIS2_EEE5firstB7v160006Ev, symObjAddr: 0x8150, symBinAddr: 0x10000BDB0, symSize: 0x20 }
  - { offsetInCU: 0x19D75, offset: 0x19D75, size: 0x8, addend: 0x0, symName: __ZNSt3__122__compressed_pair_elemIPP7ClusterLi0ELb0EE5__getB7v160006Ev, symObjAddr: 0x8170, symBinAddr: 0x10000BDD0, symSize: 0x10 }
  - { offsetInCU: 0x19DB4, offset: 0x19DB4, size: 0x8, addend: 0x0, symName: __ZNSt3__16vectorIP7ClusterNS_9allocatorIS2_EEE21_ConstructTransactionC1B7v160006ERS5_m, symObjAddr: 0x8180, symBinAddr: 0x10000BDE0, symSize: 0x30 }
  - { offsetInCU: 0x19DFC, offset: 0x19DFC, size: 0x8, addend: 0x0, symName: __ZNSt3__116allocator_traitsINS_9allocatorIP7ClusterEEE9constructB7v160006IS3_JEvEEvRS4_PT_DpOT0_, symObjAddr: 0x81B0, symBinAddr: 0x10000BE10, symSize: 0x30 }
  - { offsetInCU: 0x19E3E, offset: 0x19E3E, size: 0x8, addend: 0x0, symName: __ZNSt3__16vectorIP7ClusterNS_9allocatorIS2_EEE21_ConstructTransactionD1B7v160006Ev, symObjAddr: 0x81E0, symBinAddr: 0x10000BE40, symSize: 0x20 }
  - { offsetInCU: 0x19E68, offset: 0x19E68, size: 0x8, addend: 0x0, symName: __ZNSt3__16vectorIP7ClusterNS_9allocatorIS2_EEE21_ConstructTransactionC2B7v160006ERS5_m, symObjAddr: 0x8200, symBinAddr: 0x10000BE60, symSize: 0x40 }
  - { offsetInCU: 0x19EB0, offset: 0x19EB0, size: 0x8, addend: 0x0, symName: __ZNSt3__19allocatorIP7ClusterE9constructB7v160006IS2_JEEEvPT_DpOT0_, symObjAddr: 0x8240, symBinAddr: 0x10000BEA0, symSize: 0x20 }
  - { offsetInCU: 0x19EF2, offset: 0x19EF2, size: 0x8, addend: 0x0, symName: __ZNSt3__16vectorIP7ClusterNS_9allocatorIS2_EEE21_ConstructTransactionD2B7v160006Ev, symObjAddr: 0x8260, symBinAddr: 0x10000BEC0, symSize: 0x20 }
  - { offsetInCU: 0x19F1C, offset: 0x19F1C, size: 0x8, addend: 0x0, symName: __ZNKSt3__16vectorIP7ClusterNS_9allocatorIS2_EEE8max_sizeEv, symObjAddr: 0x8280, symBinAddr: 0x10000BEE0, symSize: 0x60 }
  - { offsetInCU: 0x19F44, offset: 0x19F44, size: 0x8, addend: 0x0, symName: __ZNKSt3__16vectorIP7ClusterNS_9allocatorIS2_EEE20__throw_length_errorB7v160006Ev, symObjAddr: 0x82E0, symBinAddr: 0x10000BF40, symSize: 0x20 }
  - { offsetInCU: 0x19F74, offset: 0x19F74, size: 0x8, addend: 0x0, symName: __ZNSt3__116allocator_traitsINS_9allocatorIP7ClusterEEE8max_sizeB7v160006IS4_vEEmRKS4_, symObjAddr: 0x8300, symBinAddr: 0x10000BF60, symSize: 0x20 }
  - { offsetInCU: 0x19FA2, offset: 0x19FA2, size: 0x8, addend: 0x0, symName: __ZNKSt3__16vectorIP7ClusterNS_9allocatorIS2_EEE7__allocB7v160006Ev, symObjAddr: 0x8320, symBinAddr: 0x10000BF80, symSize: 0x20 }
  - { offsetInCU: 0x19FC8, offset: 0x19FC8, size: 0x8, addend: 0x0, symName: __ZNKSt3__19allocatorIP7ClusterE8max_sizeB7v160006Ev, symObjAddr: 0x8340, symBinAddr: 0x10000BFA0, symSize: 0x20 }
  - { offsetInCU: 0x19FEE, offset: 0x19FEE, size: 0x8, addend: 0x0, symName: __ZNKSt3__117__compressed_pairIPP7ClusterNS_9allocatorIS2_EEE6secondB7v160006Ev, symObjAddr: 0x8360, symBinAddr: 0x10000BFC0, symSize: 0x20 }
  - { offsetInCU: 0x1A014, offset: 0x1A014, size: 0x8, addend: 0x0, symName: __ZNKSt3__122__compressed_pair_elemINS_9allocatorIP7ClusterEELi1ELb1EE5__getB7v160006Ev, symObjAddr: 0x8380, symBinAddr: 0x10000BFE0, symSize: 0x10 }
  - { offsetInCU: 0x1A03A, offset: 0x1A03A, size: 0x8, addend: 0x0, symName: __ZNSt3__114__split_bufferIP7ClusterRNS_9allocatorIS2_EEEC2EmmS5_, symObjAddr: 0x8390, symBinAddr: 0x10000BFF0, symSize: 0xD0 }
  - { offsetInCU: 0x1A0AE, offset: 0x1A0AE, size: 0x8, addend: 0x0, symName: __ZNSt3__117__compressed_pairIPP7ClusterRNS_9allocatorIS2_EEEC1B7v160006IDnS6_EEOT_OT0_, symObjAddr: 0x8460, symBinAddr: 0x10000C0C0, symSize: 0x30 }
  - { offsetInCU: 0x1A106, offset: 0x1A106, size: 0x8, addend: 0x0, symName: __ZNSt3__114__split_bufferIP7ClusterRNS_9allocatorIS2_EEE7__allocB7v160006Ev, symObjAddr: 0x84D0, symBinAddr: 0x10000C130, symSize: 0x20 }
  - { offsetInCU: 0x1A12C, offset: 0x1A12C, size: 0x8, addend: 0x0, symName: __ZNSt3__114__split_bufferIP7ClusterRNS_9allocatorIS2_EEE9__end_capB7v160006Ev, symObjAddr: 0x84F0, symBinAddr: 0x10000C150, symSize: 0x20 }
  - { offsetInCU: 0x1A152, offset: 0x1A152, size: 0x8, addend: 0x0, symName: __ZNSt3__117__compressed_pairIPP7ClusterRNS_9allocatorIS2_EEEC2B7v160006IDnS6_EEOT_OT0_, symObjAddr: 0x8510, symBinAddr: 0x10000C170, symSize: 0x40 }
  - { offsetInCU: 0x1A1AA, offset: 0x1A1AA, size: 0x8, addend: 0x0, symName: __ZNSt3__122__compressed_pair_elemIRNS_9allocatorIP7ClusterEELi1ELb0EEC2B7v160006IS5_vEEOT_, symObjAddr: 0x8550, symBinAddr: 0x10000C1B0, symSize: 0x20 }
  - { offsetInCU: 0x1A1EC, offset: 0x1A1EC, size: 0x8, addend: 0x0, symName: __ZNSt3__19allocatorIP7ClusterE8allocateB7v160006Em, symObjAddr: 0x8570, symBinAddr: 0x10000C1D0, symSize: 0x50 }
  - { offsetInCU: 0x1A220, offset: 0x1A220, size: 0x8, addend: 0x0, symName: __ZNSt3__117__compressed_pairIPP7ClusterRNS_9allocatorIS2_EEE6secondB7v160006Ev, symObjAddr: 0x85C0, symBinAddr: 0x10000C220, symSize: 0x20 }
  - { offsetInCU: 0x1A246, offset: 0x1A246, size: 0x8, addend: 0x0, symName: __ZNSt3__122__compressed_pair_elemIRNS_9allocatorIP7ClusterEELi1ELb0EE5__getB7v160006Ev, symObjAddr: 0x85E0, symBinAddr: 0x10000C240, symSize: 0x20 }
  - { offsetInCU: 0x1A26C, offset: 0x1A26C, size: 0x8, addend: 0x0, symName: __ZNSt3__117__compressed_pairIPP7ClusterRNS_9allocatorIS2_EEE5firstB7v160006Ev, symObjAddr: 0x8600, symBinAddr: 0x10000C260, symSize: 0x20 }
  - { offsetInCU: 0x1A29C, offset: 0x1A29C, size: 0x8, addend: 0x0, symName: __ZNSt3__114__split_bufferIP7ClusterRNS_9allocatorIS2_EEE21_ConstructTransactionC1B7v160006EPPS2_m, symObjAddr: 0x8620, symBinAddr: 0x10000C280, symSize: 0x30 }
  - { offsetInCU: 0x1A2E2, offset: 0x1A2E2, size: 0x8, addend: 0x0, symName: __ZNSt3__114__split_bufferIP7ClusterRNS_9allocatorIS2_EEE21_ConstructTransactionD1B7v160006Ev, symObjAddr: 0x8650, symBinAddr: 0x10000C2B0, symSize: 0x20 }
  - { offsetInCU: 0x1A30C, offset: 0x1A30C, size: 0x8, addend: 0x0, symName: __ZNSt3__114__split_bufferIP7ClusterRNS_9allocatorIS2_EEE21_ConstructTransactionC2B7v160006EPPS2_m, symObjAddr: 0x8670, symBinAddr: 0x10000C2D0, symSize: 0x40 }
  - { offsetInCU: 0x1A352, offset: 0x1A352, size: 0x8, addend: 0x0, symName: __ZNSt3__114__split_bufferIP7ClusterRNS_9allocatorIS2_EEE21_ConstructTransactionD2B7v160006Ev, symObjAddr: 0x86B0, symBinAddr: 0x10000C310, symSize: 0x20 }
  - { offsetInCU: 0x1A37C, offset: 0x1A37C, size: 0x8, addend: 0x0, symName: __ZNSt3__116reverse_iteratorIPP7ClusterEC1B7v160006ES3_, symObjAddr: 0x8740, symBinAddr: 0x10000C3A0, symSize: 0x30 }
  - { offsetInCU: 0x1A3B4, offset: 0x1A3B4, size: 0x8, addend: 0x0, symName: __ZNKSt3__116reverse_iteratorIPP7ClusterE4baseB7v160006Ev, symObjAddr: 0x8770, symBinAddr: 0x10000C3D0, symSize: 0x20 }
  - { offsetInCU: 0x1A3DA, offset: 0x1A3DA, size: 0x8, addend: 0x0, symName: __ZNKSt3__16vectorIP7ClusterNS_9allocatorIS2_EEE14__annotate_newB7v160006Em, symObjAddr: 0x87D0, symBinAddr: 0x10000C430, symSize: 0xB0 }
  - { offsetInCU: 0x1A428, offset: 0x1A428, size: 0x8, addend: 0x0, symName: __ZNKSt3__111__move_loopINS_17_ClassicAlgPolicyEEclB7v160006INS_16reverse_iteratorIPP7ClusterEES8_S8_EENS_4pairIT_T1_EESA_T0_SB_, symObjAddr: 0x8CD0, symBinAddr: 0x10000C930, symSize: 0xA0 }
  - { offsetInCU: 0x1A498, offset: 0x1A498, size: 0x8, addend: 0x0, symName: __ZNSt3__18_IterOpsINS_17_ClassicAlgPolicyEE11__iter_moveB7v160006IRNS_16reverse_iteratorIPP7ClusterEEEENS_9enable_ifIXsr12is_referenceIDTdeclsr3stdE7declvalIRT_EEEEE5valueEDTclsr3stdE4movedeclsr3stdE7declvalISC_EEEEE4typeEOSB_, symObjAddr: 0x8EF0, symBinAddr: 0x10000CB50, symSize: 0x20 }
  - { offsetInCU: 0x1A4C4, offset: 0x1A4C4, size: 0x8, addend: 0x0, symName: __ZNKSt3__116reverse_iteratorIPP7ClusterEdeB7v160006Ev, symObjAddr: 0x8F10, symBinAddr: 0x10000CB70, symSize: 0x30 }
  - { offsetInCU: 0x1A4F8, offset: 0x1A4F8, size: 0x8, addend: 0x0, symName: __ZNSt3__116reverse_iteratorIPP7ClusterEppB7v160006Ev, symObjAddr: 0x8F40, symBinAddr: 0x10000CBA0, symSize: 0x20 }
  - { offsetInCU: 0x1A51E, offset: 0x1A51E, size: 0x8, addend: 0x0, symName: __ZNSt3__18_IterOpsINS_17_ClassicAlgPolicyEE25__validate_iter_referenceB7v160006IRNS_16reverse_iteratorIPP7ClusterEEEEvv, symObjAddr: 0x8F60, symBinAddr: 0x10000CBC0, symSize: 0x10 }
  - { offsetInCU: 0x1A53C, offset: 0x1A53C, size: 0x8, addend: 0x0, symName: __ZNSt3__118__unwrap_iter_implINS_16reverse_iteratorIPP7ClusterEELb0EE8__unwrapB7v160006ES5_, symObjAddr: 0x8F70, symBinAddr: 0x10000CBD0, symSize: 0x20 }
  - { offsetInCU: 0x1A564, offset: 0x1A564, size: 0x8, addend: 0x0, symName: __ZNSt3__14pairINS_16reverse_iteratorIPP7ClusterEES5_EC1B7v160006IS5_S5_LPv0EEEOT_OT0_, symObjAddr: 0x8F90, symBinAddr: 0x10000CBF0, symSize: 0x30 }
  - { offsetInCU: 0x1A5C2, offset: 0x1A5C2, size: 0x8, addend: 0x0, symName: __ZNSt3__14pairINS_16reverse_iteratorIPP7ClusterEES5_EC2B7v160006IS5_S5_LPv0EEEOT_OT0_, symObjAddr: 0x8FC0, symBinAddr: 0x10000CC20, symSize: 0x40 }
  - { offsetInCU: 0x1A620, offset: 0x1A620, size: 0x8, addend: 0x0, symName: __ZNSt3__118__unwrap_iter_implINS_16reverse_iteratorIPP7ClusterEELb0EE8__rewrapB7v160006ES5_S5_, symObjAddr: 0x9000, symBinAddr: 0x10000CC60, symSize: 0x30 }
  - { offsetInCU: 0x1A64D, offset: 0x1A64D, size: 0x8, addend: 0x0, symName: __ZNSt3__116reverse_iteratorIPP7ClusterEC2B7v160006ES3_, symObjAddr: 0x9030, symBinAddr: 0x10000CC90, symSize: 0x30 }
  - { offsetInCU: 0x1A685, offset: 0x1A685, size: 0x8, addend: 0x0, symName: __ZNSt3__114__split_bufferIP7ClusterRNS_9allocatorIS2_EEED2Ev, symObjAddr: 0x9060, symBinAddr: 0x10000CCC0, symSize: 0x70 }
  - { offsetInCU: 0x1A6B1, offset: 0x1A6B1, size: 0x8, addend: 0x0, symName: __ZNSt3__114__split_bufferIP7ClusterRNS_9allocatorIS2_EEE5clearB7v160006Ev, symObjAddr: 0x90D0, symBinAddr: 0x10000CD30, symSize: 0x20 }
  - { offsetInCU: 0x1A6D7, offset: 0x1A6D7, size: 0x8, addend: 0x0, symName: __ZNKSt3__114__split_bufferIP7ClusterRNS_9allocatorIS2_EEE8capacityB7v160006Ev, symObjAddr: 0x90F0, symBinAddr: 0x10000CD50, symSize: 0x30 }
  - { offsetInCU: 0x1A6FD, offset: 0x1A6FD, size: 0x8, addend: 0x0, symName: __ZNSt3__114__split_bufferIP7ClusterRNS_9allocatorIS2_EEE17__destruct_at_endB7v160006EPS2_, symObjAddr: 0x9120, symBinAddr: 0x10000CD80, symSize: 0x30 }
  - { offsetInCU: 0x1A731, offset: 0x1A731, size: 0x8, addend: 0x0, symName: __ZNSt3__114__split_bufferIP7ClusterRNS_9allocatorIS2_EEE17__destruct_at_endB7v160006EPS2_NS_17integral_constantIbLb0EEE, symObjAddr: 0x9150, symBinAddr: 0x10000CDB0, symSize: 0x80 }
  - { offsetInCU: 0x1A771, offset: 0x1A771, size: 0x8, addend: 0x0, symName: __ZNKSt3__114__split_bufferIP7ClusterRNS_9allocatorIS2_EEE9__end_capB7v160006Ev, symObjAddr: 0x91D0, symBinAddr: 0x10000CE30, symSize: 0x20 }
  - { offsetInCU: 0x1A797, offset: 0x1A797, size: 0x8, addend: 0x0, symName: __ZNKSt3__117__compressed_pairIPP7ClusterRNS_9allocatorIS2_EEE5firstB7v160006Ev, symObjAddr: 0x91F0, symBinAddr: 0x10000CE50, symSize: 0x20 }
  - { offsetInCU: 0x1A7BD, offset: 0x1A7BD, size: 0x8, addend: 0x0, symName: __ZNSt3__16vectorIP7ClusterNS_9allocatorIS2_EEE27__invalidate_iterators_pastB7v160006EPS2_, symObjAddr: 0x9210, symBinAddr: 0x10000CE70, symSize: 0x10 }
  - { offsetInCU: 0x1A7F4, offset: 0x1A7F4, size: 0x8, addend: 0x0, symName: __ZNKSt3__16vectorIP7ClusterNS_9allocatorIS2_EEE17__annotate_shrinkB7v160006Em, symObjAddr: 0x9220, symBinAddr: 0x10000CE80, symSize: 0xA0 }
  - { offsetInCU: 0x1A829, offset: 0x1A829, size: 0x8, addend: 0x0, symName: __ZNSt3__16vectorINS0_IfNS_9allocatorIfEEEENS1_IS3_EEE9__end_capB7v160006Ev, symObjAddr: 0x92C0, symBinAddr: 0x10000CF20, symSize: 0x20 }
  - { offsetInCU: 0x1A84F, offset: 0x1A84F, size: 0x8, addend: 0x0, symName: __ZNSt3__16vectorINS0_IfNS_9allocatorIfEEEENS1_IS3_EEE22__construct_one_at_endB7v160006IJRKS3_EEEvDpOT_, symObjAddr: 0x92E0, symBinAddr: 0x10000CF40, symSize: 0x90 }
  - { offsetInCU: 0x1A89E, offset: 0x1A89E, size: 0x8, addend: 0x0, symName: __ZNSt3__16vectorINS0_IfNS_9allocatorIfEEEENS1_IS3_EEE21__push_back_slow_pathIRKS3_EEvOT_, symObjAddr: 0x9370, symBinAddr: 0x10000CFD0, symSize: 0xD0 }
  - { offsetInCU: 0x1A8FC, offset: 0x1A8FC, size: 0x8, addend: 0x0, symName: __ZNSt3__117__compressed_pairIPNS_6vectorIfNS_9allocatorIfEEEENS2_IS4_EEE5firstB7v160006Ev, symObjAddr: 0x9440, symBinAddr: 0x10000D0A0, symSize: 0x20 }
  - { offsetInCU: 0x1A922, offset: 0x1A922, size: 0x8, addend: 0x0, symName: __ZNSt3__122__compressed_pair_elemIPNS_6vectorIfNS_9allocatorIfEEEELi0ELb0EE5__getB7v160006Ev, symObjAddr: 0x9460, symBinAddr: 0x10000D0C0, symSize: 0x10 }
  - { offsetInCU: 0x1A961, offset: 0x1A961, size: 0x8, addend: 0x0, symName: __ZNSt3__16vectorINS0_IfNS_9allocatorIfEEEENS1_IS3_EEE21_ConstructTransactionC1B7v160006ERS5_m, symObjAddr: 0x9470, symBinAddr: 0x10000D0D0, symSize: 0x30 }
  - { offsetInCU: 0x1A9A9, offset: 0x1A9A9, size: 0x8, addend: 0x0, symName: __ZNSt3__116allocator_traitsINS_9allocatorINS_6vectorIfNS1_IfEEEEEEE9constructB7v160006IS4_JRKS4_EvEEvRS5_PT_DpOT0_, symObjAddr: 0x94A0, symBinAddr: 0x10000D100, symSize: 0x30 }
  - { offsetInCU: 0x1AA00, offset: 0x1AA00, size: 0x8, addend: 0x0, symName: __ZNSt3__16vectorINS0_IfNS_9allocatorIfEEEENS1_IS3_EEE21_ConstructTransactionD1B7v160006Ev, symObjAddr: 0x94D0, symBinAddr: 0x10000D130, symSize: 0x20 }
  - { offsetInCU: 0x1AA2A, offset: 0x1AA2A, size: 0x8, addend: 0x0, symName: __ZNSt3__16vectorINS0_IfNS_9allocatorIfEEEENS1_IS3_EEE21_ConstructTransactionC2B7v160006ERS5_m, symObjAddr: 0x94F0, symBinAddr: 0x10000D150, symSize: 0x40 }
  - { offsetInCU: 0x1AA72, offset: 0x1AA72, size: 0x8, addend: 0x0, symName: __ZNSt3__19allocatorINS_6vectorIfNS0_IfEEEEE9constructB7v160006IS3_JRKS3_EEEvPT_DpOT0_, symObjAddr: 0x9530, symBinAddr: 0x10000D190, symSize: 0x30 }
  - { offsetInCU: 0x1AAC8, offset: 0x1AAC8, size: 0x8, addend: 0x0, symName: __ZNSt3__16vectorINS0_IfNS_9allocatorIfEEEENS1_IS3_EEE21_ConstructTransactionD2B7v160006Ev, symObjAddr: 0x9560, symBinAddr: 0x10000D1C0, symSize: 0x20 }
  - { offsetInCU: 0x1AAF2, offset: 0x1AAF2, size: 0x8, addend: 0x0, symName: __ZNKSt3__16vectorINS0_IfNS_9allocatorIfEEEENS1_IS3_EEE11__recommendB7v160006Em, symObjAddr: 0x9580, symBinAddr: 0x10000D1E0, symSize: 0xA0 }
  - { offsetInCU: 0x1AB47, offset: 0x1AB47, size: 0x8, addend: 0x0, symName: __ZNSt3__114__split_bufferINS_6vectorIfNS_9allocatorIfEEEERNS2_IS4_EEEC1EmmS6_, symObjAddr: 0x9620, symBinAddr: 0x10000D280, symSize: 0x40 }
  - { offsetInCU: 0x1AB9D, offset: 0x1AB9D, size: 0x8, addend: 0x0, symName: __ZNSt3__114__split_bufferINS_6vectorIfNS_9allocatorIfEEEERNS2_IS4_EEED1Ev, symObjAddr: 0x9790, symBinAddr: 0x10000D3F0, symSize: 0x20 }
  - { offsetInCU: 0x1ABC9, offset: 0x1ABC9, size: 0x8, addend: 0x0, symName: __ZNKSt3__16vectorINS0_IfNS_9allocatorIfEEEENS1_IS3_EEE8max_sizeEv, symObjAddr: 0x97B0, symBinAddr: 0x10000D410, symSize: 0x60 }
  - { offsetInCU: 0x1ABF1, offset: 0x1ABF1, size: 0x8, addend: 0x0, symName: __ZNKSt3__16vectorINS0_IfNS_9allocatorIfEEEENS1_IS3_EEE20__throw_length_errorB7v160006Ev, symObjAddr: 0x9810, symBinAddr: 0x10000D470, symSize: 0x20 }
  - { offsetInCU: 0x1AC21, offset: 0x1AC21, size: 0x8, addend: 0x0, symName: __ZNSt3__116allocator_traitsINS_9allocatorINS_6vectorIfNS1_IfEEEEEEE8max_sizeB7v160006IS5_vEEmRKS5_, symObjAddr: 0x9830, symBinAddr: 0x10000D490, symSize: 0x20 }
  - { offsetInCU: 0x1AC4F, offset: 0x1AC4F, size: 0x8, addend: 0x0, symName: __ZNKSt3__16vectorINS0_IfNS_9allocatorIfEEEENS1_IS3_EEE7__allocB7v160006Ev, symObjAddr: 0x9850, symBinAddr: 0x10000D4B0, symSize: 0x20 }
  - { offsetInCU: 0x1AC75, offset: 0x1AC75, size: 0x8, addend: 0x0, symName: __ZNKSt3__19allocatorINS_6vectorIfNS0_IfEEEEE8max_sizeB7v160006Ev, symObjAddr: 0x9870, symBinAddr: 0x10000D4D0, symSize: 0x20 }
  - { offsetInCU: 0x1AC9B, offset: 0x1AC9B, size: 0x8, addend: 0x0, symName: __ZNKSt3__117__compressed_pairIPNS_6vectorIfNS_9allocatorIfEEEENS2_IS4_EEE6secondB7v160006Ev, symObjAddr: 0x9890, symBinAddr: 0x10000D4F0, symSize: 0x20 }
  - { offsetInCU: 0x1ACC1, offset: 0x1ACC1, size: 0x8, addend: 0x0, symName: __ZNKSt3__122__compressed_pair_elemINS_9allocatorINS_6vectorIfNS1_IfEEEEEELi1ELb1EE5__getB7v160006Ev, symObjAddr: 0x98B0, symBinAddr: 0x10000D510, symSize: 0x10 }
  - { offsetInCU: 0x1ACE7, offset: 0x1ACE7, size: 0x8, addend: 0x0, symName: __ZNSt3__114__split_bufferINS_6vectorIfNS_9allocatorIfEEEERNS2_IS4_EEEC2EmmS6_, symObjAddr: 0x98C0, symBinAddr: 0x10000D520, symSize: 0xC0 }
  - { offsetInCU: 0x1AD5B, offset: 0x1AD5B, size: 0x8, addend: 0x0, symName: __ZNSt3__117__compressed_pairIPNS_6vectorIfNS_9allocatorIfEEEERNS2_IS4_EEEC1B7v160006IDnS7_EEOT_OT0_, symObjAddr: 0x9980, symBinAddr: 0x10000D5E0, symSize: 0x30 }
  - { offsetInCU: 0x1ADB3, offset: 0x1ADB3, size: 0x8, addend: 0x0, symName: __ZNSt3__114__split_bufferINS_6vectorIfNS_9allocatorIfEEEERNS2_IS4_EEE7__allocB7v160006Ev, symObjAddr: 0x99F0, symBinAddr: 0x10000D650, symSize: 0x20 }
  - { offsetInCU: 0x1ADD9, offset: 0x1ADD9, size: 0x8, addend: 0x0, symName: __ZNSt3__114__split_bufferINS_6vectorIfNS_9allocatorIfEEEERNS2_IS4_EEE9__end_capB7v160006Ev, symObjAddr: 0x9A10, symBinAddr: 0x10000D670, symSize: 0x20 }
  - { offsetInCU: 0x1ADFF, offset: 0x1ADFF, size: 0x8, addend: 0x0, symName: __ZNSt3__117__compressed_pairIPNS_6vectorIfNS_9allocatorIfEEEERNS2_IS4_EEEC2B7v160006IDnS7_EEOT_OT0_, symObjAddr: 0x9A30, symBinAddr: 0x10000D690, symSize: 0x40 }
  - { offsetInCU: 0x1AE57, offset: 0x1AE57, size: 0x8, addend: 0x0, symName: __ZNSt3__122__compressed_pair_elemIRNS_9allocatorINS_6vectorIfNS1_IfEEEEEELi1ELb0EEC2B7v160006IS6_vEEOT_, symObjAddr: 0x9A70, symBinAddr: 0x10000D6D0, symSize: 0x20 }
  - { offsetInCU: 0x1AE99, offset: 0x1AE99, size: 0x8, addend: 0x0, symName: __ZNSt3__19allocatorINS_6vectorIfNS0_IfEEEEE8allocateB7v160006Em, symObjAddr: 0x9A90, symBinAddr: 0x10000D6F0, symSize: 0x50 }
  - { offsetInCU: 0x1AECD, offset: 0x1AECD, size: 0x8, addend: 0x0, symName: __ZNSt3__117__compressed_pairIPNS_6vectorIfNS_9allocatorIfEEEERNS2_IS4_EEE6secondB7v160006Ev, symObjAddr: 0x9AE0, symBinAddr: 0x10000D740, symSize: 0x20 }
  - { offsetInCU: 0x1AEF3, offset: 0x1AEF3, size: 0x8, addend: 0x0, symName: __ZNSt3__122__compressed_pair_elemIRNS_9allocatorINS_6vectorIfNS1_IfEEEEEELi1ELb0EE5__getB7v160006Ev, symObjAddr: 0x9B00, symBinAddr: 0x10000D760, symSize: 0x20 }
  - { offsetInCU: 0x1AF19, offset: 0x1AF19, size: 0x8, addend: 0x0, symName: __ZNSt3__117__compressed_pairIPNS_6vectorIfNS_9allocatorIfEEEERNS2_IS4_EEE5firstB7v160006Ev, symObjAddr: 0x9B20, symBinAddr: 0x10000D780, symSize: 0x20 }
  - { offsetInCU: 0x1AF3F, offset: 0x1AF3F, size: 0x8, addend: 0x0, symName: __ZNSt3__116reverse_iteratorIPNS_6vectorIfNS_9allocatorIfEEEEEC1B7v160006ES5_, symObjAddr: 0x9CC0, symBinAddr: 0x10000D920, symSize: 0x30 }
  - { offsetInCU: 0x1AF77, offset: 0x1AF77, size: 0x8, addend: 0x0, symName: __ZNKSt3__116reverse_iteratorIPNS_6vectorIfNS_9allocatorIfEEEEE4baseB7v160006Ev, symObjAddr: 0x9CF0, symBinAddr: 0x10000D950, symSize: 0x20 }
  - { offsetInCU: 0x1AF9D, offset: 0x1AF9D, size: 0x8, addend: 0x0, symName: __ZNKSt3__16vectorINS0_IfNS_9allocatorIfEEEENS1_IS3_EEE14__annotate_newB7v160006Em, symObjAddr: 0x9D50, symBinAddr: 0x10000D9B0, symSize: 0xA0 }
  - { offsetInCU: 0x1AFD2, offset: 0x1AFD2, size: 0x8, addend: 0x0, symName: __ZNSt3__129_AllocatorDestroyRangeReverseINS_9allocatorINS_6vectorIfNS1_IfEEEEEENS_16reverse_iteratorIPS4_EEEC1B7v160006ERS5_RS8_SB_, symObjAddr: 0x9E60, symBinAddr: 0x10000DAC0, symSize: 0x40 }
  - { offsetInCU: 0x1B029, offset: 0x1B029, size: 0x8, addend: 0x0, symName: __ZNSt3__116allocator_traitsINS_9allocatorINS_6vectorIfNS1_IfEEEEEEE9constructB7v160006IS4_JS4_EvEEvRS5_PT_DpOT0_, symObjAddr: 0x9EE0, symBinAddr: 0x10000DB40, symSize: 0x30 }
  - { offsetInCU: 0x1B080, offset: 0x1B080, size: 0x8, addend: 0x0, symName: __ZNKSt3__116reverse_iteratorIPNS_6vectorIfNS_9allocatorIfEEEEEdeB7v160006Ev, symObjAddr: 0x9F30, symBinAddr: 0x10000DB90, symSize: 0x30 }
  - { offsetInCU: 0x1B0B4, offset: 0x1B0B4, size: 0x8, addend: 0x0, symName: __ZNSt3__116reverse_iteratorIPNS_6vectorIfNS_9allocatorIfEEEEEppB7v160006Ev, symObjAddr: 0x9F60, symBinAddr: 0x10000DBC0, symSize: 0x20 }
  - { offsetInCU: 0x1B0DA, offset: 0x1B0DA, size: 0x8, addend: 0x0, symName: __ZNSt3__128__exception_guard_exceptionsINS_29_AllocatorDestroyRangeReverseINS_9allocatorINS_6vectorIfNS2_IfEEEEEENS_16reverse_iteratorIPS5_EEEEE10__completeB7v160006Ev, symObjAddr: 0x9F80, symBinAddr: 0x10000DBE0, symSize: 0x20 }
  - { offsetInCU: 0x1B100, offset: 0x1B100, size: 0x8, addend: 0x0, symName: __ZNSt3__128__exception_guard_exceptionsINS_29_AllocatorDestroyRangeReverseINS_9allocatorINS_6vectorIfNS2_IfEEEEEENS_16reverse_iteratorIPS5_EEEEED1B7v160006Ev, symObjAddr: 0x9FA0, symBinAddr: 0x10000DC00, symSize: 0x20 }
  - { offsetInCU: 0x1B12A, offset: 0x1B12A, size: 0x8, addend: 0x0, symName: __ZNSt3__128__exception_guard_exceptionsINS_29_AllocatorDestroyRangeReverseINS_9allocatorINS_6vectorIfNS2_IfEEEEEENS_16reverse_iteratorIPS5_EEEEEC1B7v160006ESA_, symObjAddr: 0x9FC0, symBinAddr: 0x10000DC20, symSize: 0x40 }
  - { offsetInCU: 0x1B162, offset: 0x1B162, size: 0x8, addend: 0x0, symName: __ZNSt3__128__exception_guard_exceptionsINS_29_AllocatorDestroyRangeReverseINS_9allocatorINS_6vectorIfNS2_IfEEEEEENS_16reverse_iteratorIPS5_EEEEEC2B7v160006ESA_, symObjAddr: 0xA000, symBinAddr: 0x10000DC60, symSize: 0x30 }
  - { offsetInCU: 0x1B19A, offset: 0x1B19A, size: 0x8, addend: 0x0, symName: __ZNSt3__129_AllocatorDestroyRangeReverseINS_9allocatorINS_6vectorIfNS1_IfEEEEEENS_16reverse_iteratorIPS4_EEEC2B7v160006ERS5_RS8_SB_, symObjAddr: 0xA030, symBinAddr: 0x10000DC90, symSize: 0x40 }
  - { offsetInCU: 0x1B1F1, offset: 0x1B1F1, size: 0x8, addend: 0x0, symName: __ZNSt3__19allocatorINS_6vectorIfNS0_IfEEEEE9constructB7v160006IS3_JS3_EEEvPT_DpOT0_, symObjAddr: 0xA070, symBinAddr: 0x10000DCD0, symSize: 0x30 }
  - { offsetInCU: 0x1B247, offset: 0x1B247, size: 0x8, addend: 0x0, symName: __ZNSt3__16vectorIfNS_9allocatorIfEEEC1B7v160006EOS3_, symObjAddr: 0xA0A0, symBinAddr: 0x10000DD00, symSize: 0x30 }
  - { offsetInCU: 0x1B282, offset: 0x1B282, size: 0x8, addend: 0x0, symName: __ZNSt3__16vectorIfNS_9allocatorIfEEEC2B7v160006EOS3_, symObjAddr: 0xA0D0, symBinAddr: 0x10000DD30, symSize: 0xE0 }
  - { offsetInCU: 0x1B2C2, offset: 0x1B2C2, size: 0x8, addend: 0x0, symName: __ZNSt3__119__to_address_helperINS_16reverse_iteratorIPNS_6vectorIfNS_9allocatorIfEEEEEEvE6__callB7v160006ERKS7_, symObjAddr: 0xA1C0, symBinAddr: 0x10000DE20, symSize: 0x40 }
  - { offsetInCU: 0x1B2E5, offset: 0x1B2E5, size: 0x8, addend: 0x0, symName: __ZNKSt3__116reverse_iteratorIPNS_6vectorIfNS_9allocatorIfEEEEEptB7v160006Ev, symObjAddr: 0xA200, symBinAddr: 0x10000DE60, symSize: 0x20 }
  - { offsetInCU: 0x1B30B, offset: 0x1B30B, size: 0x8, addend: 0x0, symName: __ZNSt3__128__exception_guard_exceptionsINS_29_AllocatorDestroyRangeReverseINS_9allocatorINS_6vectorIfNS2_IfEEEEEENS_16reverse_iteratorIPS5_EEEEED2B7v160006Ev, symObjAddr: 0xA220, symBinAddr: 0x10000DE80, symSize: 0x40 }
  - { offsetInCU: 0x1B335, offset: 0x1B335, size: 0x8, addend: 0x0, symName: __ZNKSt3__129_AllocatorDestroyRangeReverseINS_9allocatorINS_6vectorIfNS1_IfEEEEEENS_16reverse_iteratorIPS4_EEEclB7v160006Ev, symObjAddr: 0xA260, symBinAddr: 0x10000DEC0, symSize: 0xF0 }
  - { offsetInCU: 0x1B35C, offset: 0x1B35C, size: 0x8, addend: 0x0, symName: __ZNSt3__116reverse_iteratorINS0_IPNS_6vectorIfNS_9allocatorIfEEEEEEEC1B7v160006ES6_, symObjAddr: 0xA3C0, symBinAddr: 0x10000E020, symSize: 0x30 }
  - { offsetInCU: 0x1B394, offset: 0x1B394, size: 0x8, addend: 0x0, symName: __ZNSt3__116reverse_iteratorINS0_IPNS_6vectorIfNS_9allocatorIfEEEEEEEppB7v160006Ev, symObjAddr: 0xA460, symBinAddr: 0x10000E0C0, symSize: 0x30 }
  - { offsetInCU: 0x1B3BA, offset: 0x1B3BA, size: 0x8, addend: 0x0, symName: __ZNKSt3__116reverse_iteratorINS0_IPNS_6vectorIfNS_9allocatorIfEEEEEEE4baseB7v160006Ev, symObjAddr: 0xA490, symBinAddr: 0x10000E0F0, symSize: 0x20 }
  - { offsetInCU: 0x1B3E5, offset: 0x1B3E5, size: 0x8, addend: 0x0, symName: __ZNSt3__119__to_address_helperINS_16reverse_iteratorINS1_IPNS_6vectorIfNS_9allocatorIfEEEEEEEEvE6__callB7v160006ERKS8_, symObjAddr: 0xA4B0, symBinAddr: 0x10000E110, symSize: 0x40 }
  - { offsetInCU: 0x1B408, offset: 0x1B408, size: 0x8, addend: 0x0, symName: __ZNKSt3__116reverse_iteratorINS0_IPNS_6vectorIfNS_9allocatorIfEEEEEEEptB7v160006Ev, symObjAddr: 0xA4F0, symBinAddr: 0x10000E150, symSize: 0x20 }
  - { offsetInCU: 0x1B42E, offset: 0x1B42E, size: 0x8, addend: 0x0, symName: __ZNKSt3__116reverse_iteratorINS0_IPNS_6vectorIfNS_9allocatorIfEEEEEEEdeB7v160006Ev, symObjAddr: 0xA510, symBinAddr: 0x10000E170, symSize: 0x40 }
  - { offsetInCU: 0x1B462, offset: 0x1B462, size: 0x8, addend: 0x0, symName: __ZNSt3__116reverse_iteratorIPNS_6vectorIfNS_9allocatorIfEEEEEmmB7v160006Ev, symObjAddr: 0xA550, symBinAddr: 0x10000E1B0, symSize: 0x20 }
  - { offsetInCU: 0x1B488, offset: 0x1B488, size: 0x8, addend: 0x0, symName: __ZNSt3__116reverse_iteratorINS0_IPNS_6vectorIfNS_9allocatorIfEEEEEEEC2B7v160006ES6_, symObjAddr: 0xA570, symBinAddr: 0x10000E1D0, symSize: 0x40 }
  - { offsetInCU: 0x1B4C0, offset: 0x1B4C0, size: 0x8, addend: 0x0, symName: __ZNSt3__116reverse_iteratorIPNS_6vectorIfNS_9allocatorIfEEEEEC2B7v160006ES5_, symObjAddr: 0xA5B0, symBinAddr: 0x10000E210, symSize: 0x30 }
  - { offsetInCU: 0x1B4F8, offset: 0x1B4F8, size: 0x8, addend: 0x0, symName: __ZNSt3__114__split_bufferINS_6vectorIfNS_9allocatorIfEEEERNS2_IS4_EEED2Ev, symObjAddr: 0xA5E0, symBinAddr: 0x10000E240, symSize: 0x70 }
  - { offsetInCU: 0x1B524, offset: 0x1B524, size: 0x8, addend: 0x0, symName: __ZNSt3__114__split_bufferINS_6vectorIfNS_9allocatorIfEEEERNS2_IS4_EEE5clearB7v160006Ev, symObjAddr: 0xA650, symBinAddr: 0x10000E2B0, symSize: 0x20 }
  - { offsetInCU: 0x1B54A, offset: 0x1B54A, size: 0x8, addend: 0x0, symName: __ZNKSt3__114__split_bufferINS_6vectorIfNS_9allocatorIfEEEERNS2_IS4_EEE8capacityB7v160006Ev, symObjAddr: 0xA670, symBinAddr: 0x10000E2D0, symSize: 0x40 }
  - { offsetInCU: 0x1B570, offset: 0x1B570, size: 0x8, addend: 0x0, symName: __ZNSt3__114__split_bufferINS_6vectorIfNS_9allocatorIfEEEERNS2_IS4_EEE17__destruct_at_endB7v160006EPS4_, symObjAddr: 0xA6B0, symBinAddr: 0x10000E310, symSize: 0x30 }
  - { offsetInCU: 0x1B5A4, offset: 0x1B5A4, size: 0x8, addend: 0x0, symName: __ZNSt3__114__split_bufferINS_6vectorIfNS_9allocatorIfEEEERNS2_IS4_EEE17__destruct_at_endB7v160006EPS4_NS_17integral_constantIbLb0EEE, symObjAddr: 0xA6E0, symBinAddr: 0x10000E340, symSize: 0x80 }
  - { offsetInCU: 0x1B5E4, offset: 0x1B5E4, size: 0x8, addend: 0x0, symName: __ZNKSt3__114__split_bufferINS_6vectorIfNS_9allocatorIfEEEERNS2_IS4_EEE9__end_capB7v160006Ev, symObjAddr: 0xA760, symBinAddr: 0x10000E3C0, symSize: 0x20 }
  - { offsetInCU: 0x1B60A, offset: 0x1B60A, size: 0x8, addend: 0x0, symName: __ZNKSt3__117__compressed_pairIPNS_6vectorIfNS_9allocatorIfEEEERNS2_IS4_EEE5firstB7v160006Ev, symObjAddr: 0xA780, symBinAddr: 0x10000E3E0, symSize: 0x20 }
  - { offsetInCU: 0x1B630, offset: 0x1B630, size: 0x8, addend: 0x0, symName: __ZNSt3__16vectorINS0_IfNS_9allocatorIfEEEENS1_IS3_EEEC2ERKS5_, symObjAddr: 0xA7A0, symBinAddr: 0x10000E400, symSize: 0x110 }
  - { offsetInCU: 0x1B690, offset: 0x1B690, size: 0x8, addend: 0x0, symName: __ZNSt3__116allocator_traitsINS_9allocatorINS_6vectorIfNS1_IfEEEEEEE37select_on_container_copy_constructionB7v160006IS5_vvEES5_RKS5_, symObjAddr: 0xA8B0, symBinAddr: 0x10000E510, symSize: 0x10 }
  - { offsetInCU: 0x1B6C4, offset: 0x1B6C4, size: 0x8, addend: 0x0, symName: __ZNSt3__117__compressed_pairIPNS_6vectorIfNS_9allocatorIfEEEENS2_IS4_EEEC1B7v160006IDnS6_EEOT_OT0_, symObjAddr: 0xA8C0, symBinAddr: 0x10000E520, symSize: 0x30 }
  - { offsetInCU: 0x1B71C, offset: 0x1B71C, size: 0x8, addend: 0x0, symName: __ZNSt3__16vectorINS0_IfNS_9allocatorIfEEEENS1_IS3_EEE11__vallocateB7v160006Em, symObjAddr: 0xA930, symBinAddr: 0x10000E590, symSize: 0xA0 }
  - { offsetInCU: 0x1B760, offset: 0x1B760, size: 0x8, addend: 0x0, symName: __ZNSt3__16vectorINS0_IfNS_9allocatorIfEEEENS1_IS3_EEE18__construct_at_endIPS3_Li0EEEvT_S8_m, symObjAddr: 0xA9D0, symBinAddr: 0x10000E630, symSize: 0x90 }
  - { offsetInCU: 0x1B7D3, offset: 0x1B7D3, size: 0x8, addend: 0x0, symName: __ZNSt3__128__exception_guard_exceptionsINS_6vectorINS1_IfNS_9allocatorIfEEEENS2_IS4_EEE16__destroy_vectorEE10__completeB7v160006Ev, symObjAddr: 0xAA60, symBinAddr: 0x10000E6C0, symSize: 0x20 }
  - { offsetInCU: 0x1B7F9, offset: 0x1B7F9, size: 0x8, addend: 0x0, symName: __ZNSt3__128__exception_guard_exceptionsINS_6vectorINS1_IfNS_9allocatorIfEEEENS2_IS4_EEE16__destroy_vectorEED1B7v160006Ev, symObjAddr: 0xAA80, symBinAddr: 0x10000E6E0, symSize: 0x20 }
  - { offsetInCU: 0x1B823, offset: 0x1B823, size: 0x8, addend: 0x0, symName: __ZNSt3__117__compressed_pairIPNS_6vectorIfNS_9allocatorIfEEEENS2_IS4_EEEC2B7v160006IDnS6_EEOT_OT0_, symObjAddr: 0xAAA0, symBinAddr: 0x10000E700, symSize: 0x40 }
  - { offsetInCU: 0x1B87B, offset: 0x1B87B, size: 0x8, addend: 0x0, symName: __ZNSt3__122__compressed_pair_elemINS_9allocatorINS_6vectorIfNS1_IfEEEEEELi1ELb1EEC2B7v160006IS5_vEEOT_, symObjAddr: 0xAAE0, symBinAddr: 0x10000E740, symSize: 0x10 }
  - { offsetInCU: 0x1B8BD, offset: 0x1B8BD, size: 0x8, addend: 0x0, symName: __ZNSt3__128__exception_guard_exceptionsINS_6vectorINS1_IfNS_9allocatorIfEEEENS2_IS4_EEE16__destroy_vectorEEC1B7v160006ES7_, symObjAddr: 0xAAF0, symBinAddr: 0x10000E750, symSize: 0x30 }
  - { offsetInCU: 0x1B8F5, offset: 0x1B8F5, size: 0x8, addend: 0x0, symName: __ZNSt3__128__exception_guard_exceptionsINS_6vectorINS1_IfNS_9allocatorIfEEEENS2_IS4_EEE16__destroy_vectorEEC2B7v160006ES7_, symObjAddr: 0xAB20, symBinAddr: 0x10000E780, symSize: 0x20 }
  - { offsetInCU: 0x1B92D, offset: 0x1B92D, size: 0x8, addend: 0x0, symName: __ZNSt3__129_AllocatorDestroyRangeReverseINS_9allocatorINS_6vectorIfNS1_IfEEEEEEPS4_EC1B7v160006ERS5_RS6_S9_, symObjAddr: 0xACA0, symBinAddr: 0x10000E900, symSize: 0x40 }
  - { offsetInCU: 0x1B984, offset: 0x1B984, size: 0x8, addend: 0x0, symName: __ZNSt3__116allocator_traitsINS_9allocatorINS_6vectorIfNS1_IfEEEEEEE9constructB7v160006IS4_JRS4_EvEEvRS5_PT_DpOT0_, symObjAddr: 0xACE0, symBinAddr: 0x10000E940, symSize: 0x30 }
  - { offsetInCU: 0x1B9DB, offset: 0x1B9DB, size: 0x8, addend: 0x0, symName: __ZNSt3__128__exception_guard_exceptionsINS_29_AllocatorDestroyRangeReverseINS_9allocatorINS_6vectorIfNS2_IfEEEEEEPS5_EEE10__completeB7v160006Ev, symObjAddr: 0xAD10, symBinAddr: 0x10000E970, symSize: 0x20 }
  - { offsetInCU: 0x1BA01, offset: 0x1BA01, size: 0x8, addend: 0x0, symName: __ZNSt3__128__exception_guard_exceptionsINS_29_AllocatorDestroyRangeReverseINS_9allocatorINS_6vectorIfNS2_IfEEEEEEPS5_EEED1B7v160006Ev, symObjAddr: 0xAD30, symBinAddr: 0x10000E990, symSize: 0x20 }
  - { offsetInCU: 0x1BA2B, offset: 0x1BA2B, size: 0x8, addend: 0x0, symName: __ZNSt3__128__exception_guard_exceptionsINS_29_AllocatorDestroyRangeReverseINS_9allocatorINS_6vectorIfNS2_IfEEEEEEPS5_EEEC1B7v160006ES8_, symObjAddr: 0xAD50, symBinAddr: 0x10000E9B0, symSize: 0x40 }
  - { offsetInCU: 0x1BA63, offset: 0x1BA63, size: 0x8, addend: 0x0, symName: __ZNSt3__128__exception_guard_exceptionsINS_29_AllocatorDestroyRangeReverseINS_9allocatorINS_6vectorIfNS2_IfEEEEEEPS5_EEEC2B7v160006ES8_, symObjAddr: 0xAD90, symBinAddr: 0x10000E9F0, symSize: 0x30 }
  - { offsetInCU: 0x1BA9B, offset: 0x1BA9B, size: 0x8, addend: 0x0, symName: __ZNSt3__129_AllocatorDestroyRangeReverseINS_9allocatorINS_6vectorIfNS1_IfEEEEEEPS4_EC2B7v160006ERS5_RS6_S9_, symObjAddr: 0xADC0, symBinAddr: 0x10000EA20, symSize: 0x40 }
  - { offsetInCU: 0x1BAF2, offset: 0x1BAF2, size: 0x8, addend: 0x0, symName: __ZNSt3__19allocatorINS_6vectorIfNS0_IfEEEEE9constructB7v160006IS3_JRS3_EEEvPT_DpOT0_, symObjAddr: 0xAE00, symBinAddr: 0x10000EA60, symSize: 0x30 }
  - { offsetInCU: 0x1BB48, offset: 0x1BB48, size: 0x8, addend: 0x0, symName: __ZNSt3__128__exception_guard_exceptionsINS_29_AllocatorDestroyRangeReverseINS_9allocatorINS_6vectorIfNS2_IfEEEEEEPS5_EEED2B7v160006Ev, symObjAddr: 0xAE30, symBinAddr: 0x10000EA90, symSize: 0x40 }
  - { offsetInCU: 0x1BB72, offset: 0x1BB72, size: 0x8, addend: 0x0, symName: __ZNKSt3__129_AllocatorDestroyRangeReverseINS_9allocatorINS_6vectorIfNS1_IfEEEEEEPS4_EclB7v160006Ev, symObjAddr: 0xAE70, symBinAddr: 0x10000EAD0, symSize: 0x60 }
  - { offsetInCU: 0x1BB98, offset: 0x1BB98, size: 0x8, addend: 0x0, symName: __ZNSt3__128__exception_guard_exceptionsINS_6vectorINS1_IfNS_9allocatorIfEEEENS2_IS4_EEE16__destroy_vectorEED2B7v160006Ev, symObjAddr: 0xAF40, symBinAddr: 0x10000EBA0, symSize: 0x40 }
  - { offsetInCU: 0x1BBC2, offset: 0x1BBC2, size: 0x8, addend: 0x0, symName: __ZNSt3__16vectorIfNS_9allocatorIfEEE13__move_assignERS3_NS_17integral_constantIbLb1EEE, symObjAddr: 0xAF80, symBinAddr: 0x10000EBE0, symSize: 0xA0 }
  - { offsetInCU: 0x1BC04, offset: 0x1BC04, size: 0x8, addend: 0x0, symName: __ZNSt3__16vectorIfNS_9allocatorIfEEE19__move_assign_allocB7v160006ERS3_, symObjAddr: 0xB020, symBinAddr: 0x10000EC80, symSize: 0x30 }
  - { offsetInCU: 0x1BC39, offset: 0x1BC39, size: 0x8, addend: 0x0, symName: __ZNSt3__16vectorIfNS_9allocatorIfEEE19__move_assign_allocB7v160006ERS3_NS_17integral_constantIbLb1EEE, symObjAddr: 0xB050, symBinAddr: 0x10000ECB0, symSize: 0x30 }
  - { offsetInCU: 0x1BC79, offset: 0x1BC79, size: 0x8, addend: 0x0, symName: __ZNSt3__16vectorINS0_IfNS_9allocatorIfEEEENS1_IS3_EEEC2Em, symObjAddr: 0xB080, symBinAddr: 0x10000ECE0, symSize: 0xE0 }
  - { offsetInCU: 0x1BCC9, offset: 0x1BCC9, size: 0x8, addend: 0x0, symName: __ZNSt3__16vectorINS0_IfNS_9allocatorIfEEEENS1_IS3_EEE18__construct_at_endEm, symObjAddr: 0xB160, symBinAddr: 0x10000EDC0, symSize: 0xC0 }
  - { offsetInCU: 0x1BD3C, offset: 0x1BD3C, size: 0x8, addend: 0x0, symName: __ZNSt3__116allocator_traitsINS_9allocatorINS_6vectorIfNS1_IfEEEEEEE9constructB7v160006IS4_JEvEEvRS5_PT_DpOT0_, symObjAddr: 0xB220, symBinAddr: 0x10000EE80, symSize: 0x30 }
  - { offsetInCU: 0x1BD7E, offset: 0x1BD7E, size: 0x8, addend: 0x0, symName: __ZNSt3__19allocatorINS_6vectorIfNS0_IfEEEEE9constructB7v160006IS3_JEEEvPT_DpOT0_, symObjAddr: 0xB250, symBinAddr: 0x10000EEB0, symSize: 0x20 }
  - { offsetInCU: 0x1BDC0, offset: 0x1BDC0, size: 0x8, addend: 0x0, symName: __ZNKSt3__16vectorIfNS_9allocatorIfEEE5beginB7v160006Ev, symObjAddr: 0xB2C0, symBinAddr: 0x10000EF20, symSize: 0x30 }
  - { offsetInCU: 0x1BDE8, offset: 0x1BDE8, size: 0x8, addend: 0x0, symName: __ZNKSt3__16vectorIfNS_9allocatorIfEEE3endB7v160006Ev, symObjAddr: 0xB2F0, symBinAddr: 0x10000EF50, symSize: 0x30 }
  - { offsetInCU: 0x1BE1A, offset: 0x1BE1A, size: 0x8, addend: 0x0, symName: __ZNKSt3__110__equal_toclB7v160006IffEEbRKT_RKT0_, symObjAddr: 0xB3F0, symBinAddr: 0x10000F050, symSize: 0x30 }
  - { offsetInCU: 0x1BE6E, offset: 0x1BE6E, size: 0x8, addend: 0x0, symName: __ZNKSt3__111__wrap_iterIPKfEdeB7v160006Ev, symObjAddr: 0xB420, symBinAddr: 0x10000F080, symSize: 0x20 }
  - { offsetInCU: 0x1BE94, offset: 0x1BE94, size: 0x8, addend: 0x0, symName: __ZNSt3__111__wrap_iterIPKfEppB7v160006Ev, symObjAddr: 0xB440, symBinAddr: 0x10000F0A0, symSize: 0x20 }
  - { offsetInCU: 0x1BEBA, offset: 0x1BEBA, size: 0x8, addend: 0x0, symName: __ZNKSt3__111__wrap_iterIPKfE4baseB7v160006Ev, symObjAddr: 0xB4A0, symBinAddr: 0x10000F100, symSize: 0x20 }
  - { offsetInCU: 0x1BEE0, offset: 0x1BEE0, size: 0x8, addend: 0x0, symName: __ZNKSt3__16vectorIfNS_9allocatorIfEEE11__make_iterB7v160006EPKf, symObjAddr: 0xB4C0, symBinAddr: 0x10000F120, symSize: 0x30 }
  - { offsetInCU: 0x1BF15, offset: 0x1BF15, size: 0x8, addend: 0x0, symName: __ZNSt3__111__wrap_iterIPKfEC1B7v160006EPKvS2_, symObjAddr: 0xB4F0, symBinAddr: 0x10000F150, symSize: 0x30 }
  - { offsetInCU: 0x1BF5B, offset: 0x1BF5B, size: 0x8, addend: 0x0, symName: __ZNSt3__111__wrap_iterIPKfEC2B7v160006EPKvS2_, symObjAddr: 0xB520, symBinAddr: 0x10000F180, symSize: 0x20 }
  - { offsetInCU: 0x1BFA1, offset: 0x1BFA1, size: 0x8, addend: 0x0, symName: __ZNSt3__16vectorINS0_INS0_IfNS_9allocatorIfEEEENS1_IS3_EEEENS1_IS5_EEEC2ERKS7_, symObjAddr: 0xB540, symBinAddr: 0x10000F1A0, symSize: 0x110 }
  - { offsetInCU: 0x1C00B, offset: 0x1C00B, size: 0x8, addend: 0x0, symName: __ZNSt3__116allocator_traitsINS_9allocatorINS_6vectorINS2_IfNS1_IfEEEENS1_IS4_EEEEEEE37select_on_container_copy_constructionB7v160006IS7_vvEES7_RKS7_, symObjAddr: 0xB650, symBinAddr: 0x10000F2B0, symSize: 0x10 }
  - { offsetInCU: 0x1C03A, offset: 0x1C03A, size: 0x8, addend: 0x0, symName: __ZNKSt3__16vectorINS0_INS0_IfNS_9allocatorIfEEEENS1_IS3_EEEENS1_IS5_EEE7__allocB7v160006Ev, symObjAddr: 0xB660, symBinAddr: 0x10000F2C0, symSize: 0x20 }
  - { offsetInCU: 0x1C065, offset: 0x1C065, size: 0x8, addend: 0x0, symName: __ZNSt3__117__compressed_pairIPNS_6vectorINS1_IfNS_9allocatorIfEEEENS2_IS4_EEEENS2_IS6_EEEC1B7v160006IDnS8_EEOT_OT0_, symObjAddr: 0xB680, symBinAddr: 0x10000F2E0, symSize: 0x30 }
  - { offsetInCU: 0x1C0BD, offset: 0x1C0BD, size: 0x8, addend: 0x0, symName: __ZNSt3__16vectorINS0_INS0_IfNS_9allocatorIfEEEENS1_IS3_EEEENS1_IS5_EEE16__destroy_vectorC1ERS7_, symObjAddr: 0xB6F0, symBinAddr: 0x10000F350, symSize: 0x30 }
  - { offsetInCU: 0x1C0F6, offset: 0x1C0F6, size: 0x8, addend: 0x0, symName: __ZNKSt3__16vectorINS0_INS0_IfNS_9allocatorIfEEEENS1_IS3_EEEENS1_IS5_EEE4sizeB7v160006Ev, symObjAddr: 0xB730, symBinAddr: 0x10000F390, symSize: 0x30 }
  - { offsetInCU: 0x1C11C, offset: 0x1C11C, size: 0x8, addend: 0x0, symName: __ZNSt3__16vectorINS0_INS0_IfNS_9allocatorIfEEEENS1_IS3_EEEENS1_IS5_EEE11__vallocateB7v160006Em, symObjAddr: 0xB760, symBinAddr: 0x10000F3C0, symSize: 0xA0 }
  - { offsetInCU: 0x1C160, offset: 0x1C160, size: 0x8, addend: 0x0, symName: __ZNSt3__16vectorINS0_INS0_IfNS_9allocatorIfEEEENS1_IS3_EEEENS1_IS5_EEE18__construct_at_endIPS5_Li0EEEvT_SA_m, symObjAddr: 0xB800, symBinAddr: 0x10000F460, symSize: 0x90 }
  - { offsetInCU: 0x1C1D3, offset: 0x1C1D3, size: 0x8, addend: 0x0, symName: __ZNSt3__128__exception_guard_exceptionsINS_6vectorINS1_INS1_IfNS_9allocatorIfEEEENS2_IS4_EEEENS2_IS6_EEE16__destroy_vectorEE10__completeB7v160006Ev, symObjAddr: 0xB890, symBinAddr: 0x10000F4F0, symSize: 0x20 }
  - { offsetInCU: 0x1C1F9, offset: 0x1C1F9, size: 0x8, addend: 0x0, symName: __ZNSt3__128__exception_guard_exceptionsINS_6vectorINS1_INS1_IfNS_9allocatorIfEEEENS2_IS4_EEEENS2_IS6_EEE16__destroy_vectorEED1B7v160006Ev, symObjAddr: 0xB8B0, symBinAddr: 0x10000F510, symSize: 0x20 }
  - { offsetInCU: 0x1C223, offset: 0x1C223, size: 0x8, addend: 0x0, symName: __ZNKSt3__117__compressed_pairIPNS_6vectorINS1_IfNS_9allocatorIfEEEENS2_IS4_EEEENS2_IS6_EEE6secondB7v160006Ev, symObjAddr: 0xB8D0, symBinAddr: 0x10000F530, symSize: 0x20 }
  - { offsetInCU: 0x1C249, offset: 0x1C249, size: 0x8, addend: 0x0, symName: __ZNKSt3__122__compressed_pair_elemINS_9allocatorINS_6vectorINS2_IfNS1_IfEEEENS1_IS4_EEEEEELi1ELb1EE5__getB7v160006Ev, symObjAddr: 0xB8F0, symBinAddr: 0x10000F550, symSize: 0x10 }
  - { offsetInCU: 0x1C26F, offset: 0x1C26F, size: 0x8, addend: 0x0, symName: __ZNSt3__117__compressed_pairIPNS_6vectorINS1_IfNS_9allocatorIfEEEENS2_IS4_EEEENS2_IS6_EEEC2B7v160006IDnS8_EEOT_OT0_, symObjAddr: 0xB900, symBinAddr: 0x10000F560, symSize: 0x40 }
  - { offsetInCU: 0x1C2C7, offset: 0x1C2C7, size: 0x8, addend: 0x0, symName: __ZNSt3__122__compressed_pair_elemIPNS_6vectorINS1_IfNS_9allocatorIfEEEENS2_IS4_EEEELi0ELb0EEC2B7v160006IDnvEEOT_, symObjAddr: 0xB940, symBinAddr: 0x10000F5A0, symSize: 0x20 }
  - { offsetInCU: 0x1C309, offset: 0x1C309, size: 0x8, addend: 0x0, symName: __ZNSt3__122__compressed_pair_elemINS_9allocatorINS_6vectorINS2_IfNS1_IfEEEENS1_IS4_EEEEEELi1ELb1EEC2B7v160006IS7_vEEOT_, symObjAddr: 0xB960, symBinAddr: 0x10000F5C0, symSize: 0x10 }
  - { offsetInCU: 0x1C34B, offset: 0x1C34B, size: 0x8, addend: 0x0, symName: __ZNSt3__128__exception_guard_exceptionsINS_6vectorINS1_INS1_IfNS_9allocatorIfEEEENS2_IS4_EEEENS2_IS6_EEE16__destroy_vectorEEC1B7v160006ES9_, symObjAddr: 0xB970, symBinAddr: 0x10000F5D0, symSize: 0x30 }
  - { offsetInCU: 0x1C383, offset: 0x1C383, size: 0x8, addend: 0x0, symName: __ZNSt3__128__exception_guard_exceptionsINS_6vectorINS1_INS1_IfNS_9allocatorIfEEEENS2_IS4_EEEENS2_IS6_EEE16__destroy_vectorEEC2B7v160006ES9_, symObjAddr: 0xB9A0, symBinAddr: 0x10000F600, symSize: 0x20 }
  - { offsetInCU: 0x1C3BB, offset: 0x1C3BB, size: 0x8, addend: 0x0, symName: __ZNSt3__16vectorINS0_INS0_IfNS_9allocatorIfEEEENS1_IS3_EEEENS1_IS5_EEE16__destroy_vectorC2ERS7_, symObjAddr: 0xB9C0, symBinAddr: 0x10000F620, symSize: 0x20 }
  - { offsetInCU: 0x1C3F4, offset: 0x1C3F4, size: 0x8, addend: 0x0, symName: __ZNKSt3__16vectorINS0_INS0_IfNS_9allocatorIfEEEENS1_IS3_EEEENS1_IS5_EEE8max_sizeEv, symObjAddr: 0xB9E0, symBinAddr: 0x10000F640, symSize: 0x60 }
  - { offsetInCU: 0x1C41C, offset: 0x1C41C, size: 0x8, addend: 0x0, symName: __ZNKSt3__16vectorINS0_INS0_IfNS_9allocatorIfEEEENS1_IS3_EEEENS1_IS5_EEE20__throw_length_errorB7v160006Ev, symObjAddr: 0xBA40, symBinAddr: 0x10000F6A0, symSize: 0x20 }
  - { offsetInCU: 0x1C442, offset: 0x1C442, size: 0x8, addend: 0x0, symName: __ZNSt3__16vectorINS0_INS0_IfNS_9allocatorIfEEEENS1_IS3_EEEENS1_IS5_EEE7__allocB7v160006Ev, symObjAddr: 0xBAA0, symBinAddr: 0x10000F700, symSize: 0x20 }
  - { offsetInCU: 0x1C468, offset: 0x1C468, size: 0x8, addend: 0x0, symName: __ZNSt3__16vectorINS0_INS0_IfNS_9allocatorIfEEEENS1_IS3_EEEENS1_IS5_EEE9__end_capB7v160006Ev, symObjAddr: 0xBAC0, symBinAddr: 0x10000F720, symSize: 0x20 }
  - { offsetInCU: 0x1C48E, offset: 0x1C48E, size: 0x8, addend: 0x0, symName: __ZNKSt3__16vectorINS0_INS0_IfNS_9allocatorIfEEEENS1_IS3_EEEENS1_IS5_EEE14__annotate_newB7v160006Em, symObjAddr: 0xBAE0, symBinAddr: 0x10000F740, symSize: 0xA0 }
  - { offsetInCU: 0x1C4C3, offset: 0x1C4C3, size: 0x8, addend: 0x0, symName: __ZNSt3__116allocator_traitsINS_9allocatorINS_6vectorINS2_IfNS1_IfEEEENS1_IS4_EEEEEEE8max_sizeB7v160006IS7_vEEmRKS7_, symObjAddr: 0xBB80, symBinAddr: 0x10000F7E0, symSize: 0x20 }
  - { offsetInCU: 0x1C4F1, offset: 0x1C4F1, size: 0x8, addend: 0x0, symName: __ZNKSt3__19allocatorINS_6vectorINS1_IfNS0_IfEEEENS0_IS3_EEEEE8max_sizeB7v160006Ev, symObjAddr: 0xBBA0, symBinAddr: 0x10000F800, symSize: 0x20 }
  - { offsetInCU: 0x1C517, offset: 0x1C517, size: 0x8, addend: 0x0, symName: __ZNSt3__19allocatorINS_6vectorINS1_IfNS0_IfEEEENS0_IS3_EEEEE8allocateB7v160006Em, symObjAddr: 0xBBC0, symBinAddr: 0x10000F820, symSize: 0x50 }
  - { offsetInCU: 0x1C54B, offset: 0x1C54B, size: 0x8, addend: 0x0, symName: __ZNSt3__117__compressed_pairIPNS_6vectorINS1_IfNS_9allocatorIfEEEENS2_IS4_EEEENS2_IS6_EEE6secondB7v160006Ev, symObjAddr: 0xBC10, symBinAddr: 0x10000F870, symSize: 0x20 }
  - { offsetInCU: 0x1C571, offset: 0x1C571, size: 0x8, addend: 0x0, symName: __ZNSt3__122__compressed_pair_elemINS_9allocatorINS_6vectorINS2_IfNS1_IfEEEENS1_IS4_EEEEEELi1ELb1EE5__getB7v160006Ev, symObjAddr: 0xBC30, symBinAddr: 0x10000F890, symSize: 0x10 }
  - { offsetInCU: 0x1C597, offset: 0x1C597, size: 0x8, addend: 0x0, symName: __ZNSt3__117__compressed_pairIPNS_6vectorINS1_IfNS_9allocatorIfEEEENS2_IS4_EEEENS2_IS6_EEE5firstB7v160006Ev, symObjAddr: 0xBC40, symBinAddr: 0x10000F8A0, symSize: 0x20 }
  - { offsetInCU: 0x1C5BD, offset: 0x1C5BD, size: 0x8, addend: 0x0, symName: __ZNSt3__122__compressed_pair_elemIPNS_6vectorINS1_IfNS_9allocatorIfEEEENS2_IS4_EEEELi0ELb0EE5__getB7v160006Ev, symObjAddr: 0xBC60, symBinAddr: 0x10000F8C0, symSize: 0x10 }
  - { offsetInCU: 0x1C5E3, offset: 0x1C5E3, size: 0x8, addend: 0x0, symName: __ZNKSt3__16vectorINS0_INS0_IfNS_9allocatorIfEEEENS1_IS3_EEEENS1_IS5_EEE31__annotate_contiguous_containerB7v160006EPKvS9_S9_S9_, symObjAddr: 0xBC70, symBinAddr: 0x10000F8D0, symSize: 0x20 }
  - { offsetInCU: 0x1C635, offset: 0x1C635, size: 0x8, addend: 0x0, symName: __ZNKSt3__16vectorINS0_INS0_IfNS_9allocatorIfEEEENS1_IS3_EEEENS1_IS5_EEE4dataB7v160006Ev, symObjAddr: 0xBC90, symBinAddr: 0x10000F8F0, symSize: 0x20 }
  - { offsetInCU: 0x1C65B, offset: 0x1C65B, size: 0x8, addend: 0x0, symName: __ZNKSt3__16vectorINS0_INS0_IfNS_9allocatorIfEEEENS1_IS3_EEEENS1_IS5_EEE8capacityB7v160006Ev, symObjAddr: 0xBCB0, symBinAddr: 0x10000F910, symSize: 0x40 }
  - { offsetInCU: 0x1C681, offset: 0x1C681, size: 0x8, addend: 0x0, symName: __ZNKSt3__16vectorINS0_INS0_IfNS_9allocatorIfEEEENS1_IS3_EEEENS1_IS5_EEE9__end_capB7v160006Ev, symObjAddr: 0xBD00, symBinAddr: 0x10000F960, symSize: 0x20 }
  - { offsetInCU: 0x1C6A7, offset: 0x1C6A7, size: 0x8, addend: 0x0, symName: __ZNKSt3__117__compressed_pairIPNS_6vectorINS1_IfNS_9allocatorIfEEEENS2_IS4_EEEENS2_IS6_EEE5firstB7v160006Ev, symObjAddr: 0xBD20, symBinAddr: 0x10000F980, symSize: 0x20 }
  - { offsetInCU: 0x1C6CD, offset: 0x1C6CD, size: 0x8, addend: 0x0, symName: __ZNKSt3__122__compressed_pair_elemIPNS_6vectorINS1_IfNS_9allocatorIfEEEENS2_IS4_EEEELi0ELb0EE5__getB7v160006Ev, symObjAddr: 0xBD40, symBinAddr: 0x10000F9A0, symSize: 0x10 }
  - { offsetInCU: 0x1C70C, offset: 0x1C70C, size: 0x8, addend: 0x0, symName: __ZNSt3__16vectorINS0_INS0_IfNS_9allocatorIfEEEENS1_IS3_EEEENS1_IS5_EEE21_ConstructTransactionC1B7v160006ERS7_m, symObjAddr: 0xBD50, symBinAddr: 0x10000F9B0, symSize: 0x30 }
  - { offsetInCU: 0x1C754, offset: 0x1C754, size: 0x8, addend: 0x0, symName: __ZNSt3__16vectorINS0_INS0_IfNS_9allocatorIfEEEENS1_IS3_EEEENS1_IS5_EEE21_ConstructTransactionD1B7v160006Ev, symObjAddr: 0xBE80, symBinAddr: 0x10000FAE0, symSize: 0x20 }
  - { offsetInCU: 0x1C77E, offset: 0x1C77E, size: 0x8, addend: 0x0, symName: __ZNSt3__16vectorINS0_INS0_IfNS_9allocatorIfEEEENS1_IS3_EEEENS1_IS5_EEE21_ConstructTransactionC2B7v160006ERS7_m, symObjAddr: 0xBEA0, symBinAddr: 0x10000FB00, symSize: 0x40 }
  - { offsetInCU: 0x1C7C6, offset: 0x1C7C6, size: 0x8, addend: 0x0, symName: __ZNSt3__129_AllocatorDestroyRangeReverseINS_9allocatorINS_6vectorINS2_IfNS1_IfEEEENS1_IS4_EEEEEEPS6_EC1B7v160006ERS7_RS8_SB_, symObjAddr: 0xBF40, symBinAddr: 0x10000FBA0, symSize: 0x40 }
  - { offsetInCU: 0x1C81D, offset: 0x1C81D, size: 0x8, addend: 0x0, symName: __ZNSt3__116allocator_traitsINS_9allocatorINS_6vectorINS2_IfNS1_IfEEEENS1_IS4_EEEEEEE9constructB7v160006IS6_JRS6_EvEEvRS7_PT_DpOT0_, symObjAddr: 0xBF80, symBinAddr: 0x10000FBE0, symSize: 0x30 }
  - { offsetInCU: 0x1C874, offset: 0x1C874, size: 0x8, addend: 0x0, symName: __ZNSt3__128__exception_guard_exceptionsINS_29_AllocatorDestroyRangeReverseINS_9allocatorINS_6vectorINS3_IfNS2_IfEEEENS2_IS5_EEEEEEPS7_EEE10__completeB7v160006Ev, symObjAddr: 0xBFB0, symBinAddr: 0x10000FC10, symSize: 0x20 }
  - { offsetInCU: 0x1C89A, offset: 0x1C89A, size: 0x8, addend: 0x0, symName: __ZNSt3__128__exception_guard_exceptionsINS_29_AllocatorDestroyRangeReverseINS_9allocatorINS_6vectorINS3_IfNS2_IfEEEENS2_IS5_EEEEEEPS7_EEED1B7v160006Ev, symObjAddr: 0xBFD0, symBinAddr: 0x10000FC30, symSize: 0x20 }
  - { offsetInCU: 0x1C8C4, offset: 0x1C8C4, size: 0x8, addend: 0x0, symName: __ZNSt3__128__exception_guard_exceptionsINS_29_AllocatorDestroyRangeReverseINS_9allocatorINS_6vectorINS3_IfNS2_IfEEEENS2_IS5_EEEEEEPS7_EEEC1B7v160006ESA_, symObjAddr: 0xBFF0, symBinAddr: 0x10000FC50, symSize: 0x40 }
  - { offsetInCU: 0x1C8FC, offset: 0x1C8FC, size: 0x8, addend: 0x0, symName: __ZNSt3__128__exception_guard_exceptionsINS_29_AllocatorDestroyRangeReverseINS_9allocatorINS_6vectorINS3_IfNS2_IfEEEENS2_IS5_EEEEEEPS7_EEEC2B7v160006ESA_, symObjAddr: 0xC030, symBinAddr: 0x10000FC90, symSize: 0x30 }
  - { offsetInCU: 0x1C934, offset: 0x1C934, size: 0x8, addend: 0x0, symName: __ZNSt3__129_AllocatorDestroyRangeReverseINS_9allocatorINS_6vectorINS2_IfNS1_IfEEEENS1_IS4_EEEEEEPS6_EC2B7v160006ERS7_RS8_SB_, symObjAddr: 0xC060, symBinAddr: 0x10000FCC0, symSize: 0x40 }
  - { offsetInCU: 0x1C98B, offset: 0x1C98B, size: 0x8, addend: 0x0, symName: __ZNSt3__19allocatorINS_6vectorINS1_IfNS0_IfEEEENS0_IS3_EEEEE9constructB7v160006IS5_JRS5_EEEvPT_DpOT0_, symObjAddr: 0xC0A0, symBinAddr: 0x10000FD00, symSize: 0x30 }
  - { offsetInCU: 0x1C9E1, offset: 0x1C9E1, size: 0x8, addend: 0x0, symName: __ZNSt3__128__exception_guard_exceptionsINS_29_AllocatorDestroyRangeReverseINS_9allocatorINS_6vectorINS3_IfNS2_IfEEEENS2_IS5_EEEEEEPS7_EEED2B7v160006Ev, symObjAddr: 0xC0D0, symBinAddr: 0x10000FD30, symSize: 0x40 }
  - { offsetInCU: 0x1CA0B, offset: 0x1CA0B, size: 0x8, addend: 0x0, symName: __ZNKSt3__129_AllocatorDestroyRangeReverseINS_9allocatorINS_6vectorINS2_IfNS1_IfEEEENS1_IS4_EEEEEEPS6_EclB7v160006Ev, symObjAddr: 0xC110, symBinAddr: 0x10000FD70, symSize: 0x60 }
  - { offsetInCU: 0x1CA31, offset: 0x1CA31, size: 0x8, addend: 0x0, symName: __ZNSt3__116reverse_iteratorIPNS_6vectorINS1_IfNS_9allocatorIfEEEENS2_IS4_EEEEEC1B7v160006ES7_, symObjAddr: 0xC1E0, symBinAddr: 0x10000FE40, symSize: 0x30 }
  - { offsetInCU: 0x1CA69, offset: 0x1CA69, size: 0x8, addend: 0x0, symName: __ZNSt3__116allocator_traitsINS_9allocatorINS_6vectorINS2_IfNS1_IfEEEENS1_IS4_EEEEEEE7destroyB7v160006IS6_vEEvRS7_PT_, symObjAddr: 0xC250, symBinAddr: 0x10000FEB0, symSize: 0x30 }
  - { offsetInCU: 0x1CAA6, offset: 0x1CAA6, size: 0x8, addend: 0x0, symName: __ZNSt3__116reverse_iteratorIPNS_6vectorINS1_IfNS_9allocatorIfEEEENS2_IS4_EEEEEppB7v160006Ev, symObjAddr: 0xC2A0, symBinAddr: 0x10000FF00, symSize: 0x20 }
  - { offsetInCU: 0x1CACC, offset: 0x1CACC, size: 0x8, addend: 0x0, symName: __ZNKSt3__116reverse_iteratorIPNS_6vectorINS1_IfNS_9allocatorIfEEEENS2_IS4_EEEEE4baseB7v160006Ev, symObjAddr: 0xC2C0, symBinAddr: 0x10000FF20, symSize: 0x20 }
  - { offsetInCU: 0x1CAF2, offset: 0x1CAF2, size: 0x8, addend: 0x0, symName: __ZNSt3__19allocatorINS_6vectorINS1_IfNS0_IfEEEENS0_IS3_EEEEE7destroyB7v160006EPS5_, symObjAddr: 0xC2E0, symBinAddr: 0x10000FF40, symSize: 0x20 }
  - { offsetInCU: 0x1CB2B, offset: 0x1CB2B, size: 0x8, addend: 0x0, symName: __ZNSt3__119__to_address_helperINS_16reverse_iteratorIPNS_6vectorINS2_IfNS_9allocatorIfEEEENS3_IS5_EEEEEEvE6__callB7v160006ERKS9_, symObjAddr: 0xC300, symBinAddr: 0x10000FF60, symSize: 0x40 }
  - { offsetInCU: 0x1CB4E, offset: 0x1CB4E, size: 0x8, addend: 0x0, symName: __ZNKSt3__116reverse_iteratorIPNS_6vectorINS1_IfNS_9allocatorIfEEEENS2_IS4_EEEEEptB7v160006Ev, symObjAddr: 0xC340, symBinAddr: 0x10000FFA0, symSize: 0x20 }
  - { offsetInCU: 0x1CB74, offset: 0x1CB74, size: 0x8, addend: 0x0, symName: __ZNKSt3__116reverse_iteratorIPNS_6vectorINS1_IfNS_9allocatorIfEEEENS2_IS4_EEEEEdeB7v160006Ev, symObjAddr: 0xC360, symBinAddr: 0x10000FFC0, symSize: 0x30 }
  - { offsetInCU: 0x1CBA8, offset: 0x1CBA8, size: 0x8, addend: 0x0, symName: __ZNSt3__116reverse_iteratorIPNS_6vectorINS1_IfNS_9allocatorIfEEEENS2_IS4_EEEEEC2B7v160006ES7_, symObjAddr: 0xC390, symBinAddr: 0x10000FFF0, symSize: 0x30 }
  - { offsetInCU: 0x1CBE0, offset: 0x1CBE0, size: 0x8, addend: 0x0, symName: __ZNSt3__16vectorINS0_INS0_IfNS_9allocatorIfEEEENS1_IS3_EEEENS1_IS5_EEE21_ConstructTransactionD2B7v160006Ev, symObjAddr: 0xC3C0, symBinAddr: 0x100010020, symSize: 0x20 }
  - { offsetInCU: 0x1CC0A, offset: 0x1CC0A, size: 0x8, addend: 0x0, symName: __ZNSt3__128__exception_guard_exceptionsINS_6vectorINS1_INS1_IfNS_9allocatorIfEEEENS2_IS4_EEEENS2_IS6_EEE16__destroy_vectorEED2B7v160006Ev, symObjAddr: 0xC3E0, symBinAddr: 0x100010040, symSize: 0x40 }
  - { offsetInCU: 0x1CC34, offset: 0x1CC34, size: 0x8, addend: 0x0, symName: __ZNSt3__16vectorINS0_INS0_IfNS_9allocatorIfEEEENS1_IS3_EEEENS1_IS5_EEE16__destroy_vectorclB7v160006Ev, symObjAddr: 0xC420, symBinAddr: 0x100010080, symSize: 0x90 }
  - { offsetInCU: 0x1CC5A, offset: 0x1CC5A, size: 0x8, addend: 0x0, symName: __ZNKSt3__16vectorINS0_INS0_IfNS_9allocatorIfEEEENS1_IS3_EEEENS1_IS5_EEE17__annotate_deleteB7v160006Ev, symObjAddr: 0xC4B0, symBinAddr: 0x100010110, symSize: 0xB0 }
  - { offsetInCU: 0x1CC80, offset: 0x1CC80, size: 0x8, addend: 0x0, symName: __ZNSt3__16vectorINS0_INS0_IfNS_9allocatorIfEEEENS1_IS3_EEEENS1_IS5_EEE7__clearB7v160006Ev, symObjAddr: 0xC570, symBinAddr: 0x1000101D0, symSize: 0x20 }
  - { offsetInCU: 0x1CCA6, offset: 0x1CCA6, size: 0x8, addend: 0x0, symName: __ZNSt3__116allocator_traitsINS_9allocatorINS_6vectorINS2_IfNS1_IfEEEENS1_IS4_EEEEEEE10deallocateB7v160006ERS7_PS6_m, symObjAddr: 0xC590, symBinAddr: 0x1000101F0, symSize: 0x30 }
  - { offsetInCU: 0x1CCE8, offset: 0x1CCE8, size: 0x8, addend: 0x0, symName: __ZNSt3__16vectorINS0_INS0_IfNS_9allocatorIfEEEENS1_IS3_EEEENS1_IS5_EEE22__base_destruct_at_endB7v160006EPS5_, symObjAddr: 0xC5C0, symBinAddr: 0x100010220, symSize: 0x80 }
  - { offsetInCU: 0x1CD2C, offset: 0x1CD2C, size: 0x8, addend: 0x0, symName: __ZNSt3__19allocatorINS_6vectorINS1_IfNS0_IfEEEENS0_IS3_EEEEE10deallocateB7v160006EPS5_m, symObjAddr: 0xC640, symBinAddr: 0x1000102A0, symSize: 0x50 }
  - { offsetInCU: 0x1CD6E, offset: 0x1CD6E, size: 0x8, addend: 0x0, symName: __ZNSt3__16vectorINS0_INS0_IfNS_9allocatorIfEEEENS1_IS3_EEEENS1_IS5_EEED2B7v160006Ev, symObjAddr: 0xC690, symBinAddr: 0x1000102F0, symSize: 0x40 }
  - { offsetInCU: 0x1CD98, offset: 0x1CD98, size: 0x8, addend: 0x0, symName: __ZNSt3__16vectorINS0_INS0_IfNS_9allocatorIfEEEENS1_IS3_EEEENS1_IS5_EEEC2Em, symObjAddr: 0xC6D0, symBinAddr: 0x100010330, symSize: 0xE0 }
  - { offsetInCU: 0x1CDE8, offset: 0x1CDE8, size: 0x8, addend: 0x0, symName: __ZNSt3__117__compressed_pairIPNS_6vectorINS1_IfNS_9allocatorIfEEEENS2_IS4_EEEENS2_IS6_EEEC1B7v160006IDnNS_18__default_init_tagEEEOT_OT0_, symObjAddr: 0xC7B0, symBinAddr: 0x100010410, symSize: 0x30 }
  - { offsetInCU: 0x1CE40, offset: 0x1CE40, size: 0x8, addend: 0x0, symName: __ZNSt3__16vectorINS0_INS0_IfNS_9allocatorIfEEEENS1_IS3_EEEENS1_IS5_EEE18__construct_at_endEm, symObjAddr: 0xC7E0, symBinAddr: 0x100010440, symSize: 0xC0 }
  - { offsetInCU: 0x1CEB3, offset: 0x1CEB3, size: 0x8, addend: 0x0, symName: __ZNSt3__117__compressed_pairIPNS_6vectorINS1_IfNS_9allocatorIfEEEENS2_IS4_EEEENS2_IS6_EEEC2B7v160006IDnNS_18__default_init_tagEEEOT_OT0_, symObjAddr: 0xC8A0, symBinAddr: 0x100010500, symSize: 0x40 }
  - { offsetInCU: 0x1CF0B, offset: 0x1CF0B, size: 0x8, addend: 0x0, symName: __ZNSt3__122__compressed_pair_elemINS_9allocatorINS_6vectorINS2_IfNS1_IfEEEENS1_IS4_EEEEEELi1ELb1EEC2B7v160006ENS_18__default_init_tagE, symObjAddr: 0xC8E0, symBinAddr: 0x100010540, symSize: 0x20 }
  - { offsetInCU: 0x1CF3F, offset: 0x1CF3F, size: 0x8, addend: 0x0, symName: __ZNSt3__19allocatorINS_6vectorINS1_IfNS0_IfEEEENS0_IS3_EEEEEC2B7v160006Ev, symObjAddr: 0xC900, symBinAddr: 0x100010560, symSize: 0x20 }
  - { offsetInCU: 0x1CF69, offset: 0x1CF69, size: 0x8, addend: 0x0, symName: __ZNSt3__116__non_trivial_ifILb1ENS_9allocatorINS_6vectorINS2_IfNS1_IfEEEENS1_IS4_EEEEEEEC2B7v160006Ev, symObjAddr: 0xC920, symBinAddr: 0x100010580, symSize: 0x10 }
  - { offsetInCU: 0x1CF93, offset: 0x1CF93, size: 0x8, addend: 0x0, symName: __ZNSt3__116allocator_traitsINS_9allocatorINS_6vectorINS2_IfNS1_IfEEEENS1_IS4_EEEEEEE9constructB7v160006IS6_JEvEEvRS7_PT_DpOT0_, symObjAddr: 0xC930, symBinAddr: 0x100010590, symSize: 0x30 }
  - { offsetInCU: 0x1CFD5, offset: 0x1CFD5, size: 0x8, addend: 0x0, symName: __ZNSt3__19allocatorINS_6vectorINS1_IfNS0_IfEEEENS0_IS3_EEEEE9constructB7v160006IS5_JEEEvPT_DpOT0_, symObjAddr: 0xC960, symBinAddr: 0x1000105C0, symSize: 0x20 }
  - { offsetInCU: 0x1D017, offset: 0x1D017, size: 0x8, addend: 0x0, symName: __ZNSt3__16vectorIfNS_9allocatorIfEEEC2Em, symObjAddr: 0xC980, symBinAddr: 0x1000105E0, symSize: 0xE0 }
  - { offsetInCU: 0x1D067, offset: 0x1D067, size: 0x8, addend: 0x0, symName: __ZNSt3__19basic_iosIcNS_11char_traitsIcEEEC2B7v160006Ev, symObjAddr: 0xCA60, symBinAddr: 0x1000106C0, symSize: 0x40 }
  - { offsetInCU: 0x1D091, offset: 0x1D091, size: 0x8, addend: 0x0, symName: __ZNSt3__113basic_istreamIcNS_11char_traitsIcEEEC2B7v160006EPNS_15basic_streambufIcS2_EE, symObjAddr: 0xCAA0, symBinAddr: 0x100010700, symSize: 0x50 }
  - { offsetInCU: 0x1D0D6, offset: 0x1D0D6, size: 0x8, addend: 0x0, symName: __ZNSt3__19basic_iosIcNS_11char_traitsIcEEE8setstateB7v160006Ej, symObjAddr: 0xCAF0, symBinAddr: 0x100010750, symSize: 0x30 }
  - { offsetInCU: 0x1D10B, offset: 0x1D10B, size: 0x8, addend: 0x0, symName: __ZNSt3__18ios_baseC2B7v160006Ev, symObjAddr: 0xCB20, symBinAddr: 0x100010780, symSize: 0x20 }
  - { offsetInCU: 0x1D135, offset: 0x1D135, size: 0x8, addend: 0x0, symName: __ZNSt3__19basic_iosIcNS_11char_traitsIcEEE4initB7v160006EPNS_15basic_streambufIcS2_EE, symObjAddr: 0xCB40, symBinAddr: 0x1000107A0, symSize: 0x50 }
  - { offsetInCU: 0x1D16C, offset: 0x1D16C, size: 0x8, addend: 0x0, symName: __ZNSt3__111char_traitsIcE3eofEv, symObjAddr: 0xCB90, symBinAddr: 0x1000107F0, symSize: 0x10 }
  - { offsetInCU: 0x1D180, offset: 0x1D180, size: 0x8, addend: 0x0, symName: __ZNSt3__18ios_base8setstateB7v160006Ej, symObjAddr: 0xCBA0, symBinAddr: 0x100010800, symSize: 0x30 }
  - { offsetInCU: 0x1D1B7, offset: 0x1D1B7, size: 0x8, addend: 0x0, symName: __ZNSt3__16vectorI4DataNS_9allocatorIS1_EEEC2B7v160006Ev, symObjAddr: 0xCBD0, symBinAddr: 0x100010830, symSize: 0x60 }
  - { offsetInCU: 0x1D1E1, offset: 0x1D1E1, size: 0x8, addend: 0x0, symName: __ZNSt3__117__compressed_pairIP4DataNS_9allocatorIS1_EEEC1B7v160006IDnNS_18__default_init_tagEEEOT_OT0_, symObjAddr: 0xCC30, symBinAddr: 0x100010890, symSize: 0x30 }
  - { offsetInCU: 0x1D239, offset: 0x1D239, size: 0x8, addend: 0x0, symName: __ZNSt3__117__compressed_pairIP4DataNS_9allocatorIS1_EEEC2B7v160006IDnNS_18__default_init_tagEEEOT_OT0_, symObjAddr: 0xCC70, symBinAddr: 0x1000108D0, symSize: 0x40 }
  - { offsetInCU: 0x1D291, offset: 0x1D291, size: 0x8, addend: 0x0, symName: __ZNSt3__122__compressed_pair_elemIP4DataLi0ELb0EEC2B7v160006IDnvEEOT_, symObjAddr: 0xCCB0, symBinAddr: 0x100010910, symSize: 0x20 }
  - { offsetInCU: 0x1D2D3, offset: 0x1D2D3, size: 0x8, addend: 0x0, symName: __ZNSt3__122__compressed_pair_elemINS_9allocatorI4DataEELi1ELb1EEC2B7v160006ENS_18__default_init_tagE, symObjAddr: 0xCCD0, symBinAddr: 0x100010930, symSize: 0x20 }
  - { offsetInCU: 0x1D307, offset: 0x1D307, size: 0x8, addend: 0x0, symName: __ZNSt3__19allocatorI4DataEC2B7v160006Ev, symObjAddr: 0xCCF0, symBinAddr: 0x100010950, symSize: 0x20 }
  - { offsetInCU: 0x1D331, offset: 0x1D331, size: 0x8, addend: 0x0, symName: __ZNSt3__116__non_trivial_ifILb1ENS_9allocatorI4DataEEEC2B7v160006Ev, symObjAddr: 0xCD10, symBinAddr: 0x100010970, symSize: 0x10 }
  - { offsetInCU: 0x1D35B, offset: 0x1D35B, size: 0x8, addend: 0x0, symName: __ZNSt3__16vectorI4DataNS_9allocatorIS1_EEED2B7v160006Ev, symObjAddr: 0xCD20, symBinAddr: 0x100010980, symSize: 0x40 }
  - { offsetInCU: 0x1D385, offset: 0x1D385, size: 0x8, addend: 0x0, symName: __ZNSt3__16vectorI4DataNS_9allocatorIS1_EEE16__destroy_vectorC1ERS4_, symObjAddr: 0xCD60, symBinAddr: 0x1000109C0, symSize: 0x30 }
  - { offsetInCU: 0x1D3BE, offset: 0x1D3BE, size: 0x8, addend: 0x0, symName: __ZNSt3__16vectorI4DataNS_9allocatorIS1_EEE16__destroy_vectorclB7v160006Ev, symObjAddr: 0xCD90, symBinAddr: 0x1000109F0, symSize: 0x90 }
  - { offsetInCU: 0x1D3E4, offset: 0x1D3E4, size: 0x8, addend: 0x0, symName: __ZNSt3__16vectorI4DataNS_9allocatorIS1_EEE16__destroy_vectorC2ERS4_, symObjAddr: 0xCE20, symBinAddr: 0x100010A80, symSize: 0x20 }
  - { offsetInCU: 0x1D41D, offset: 0x1D41D, size: 0x8, addend: 0x0, symName: __ZNKSt3__16vectorI4DataNS_9allocatorIS1_EEE17__annotate_deleteB7v160006Ev, symObjAddr: 0xCE40, symBinAddr: 0x100010AA0, symSize: 0xB0 }
  - { offsetInCU: 0x1D443, offset: 0x1D443, size: 0x8, addend: 0x0, symName: __ZNSt3__16vectorI4DataNS_9allocatorIS1_EEE7__clearB7v160006Ev, symObjAddr: 0xCF00, symBinAddr: 0x100010B60, symSize: 0x20 }
  - { offsetInCU: 0x1D469, offset: 0x1D469, size: 0x8, addend: 0x0, symName: __ZNSt3__116allocator_traitsINS_9allocatorI4DataEEE10deallocateB7v160006ERS3_PS2_m, symObjAddr: 0xCF20, symBinAddr: 0x100010B80, symSize: 0x30 }
  - { offsetInCU: 0x1D4AB, offset: 0x1D4AB, size: 0x8, addend: 0x0, symName: __ZNSt3__16vectorI4DataNS_9allocatorIS1_EEE7__allocB7v160006Ev, symObjAddr: 0xCF50, symBinAddr: 0x100010BB0, symSize: 0x20 }
  - { offsetInCU: 0x1D4D1, offset: 0x1D4D1, size: 0x8, addend: 0x0, symName: __ZNKSt3__16vectorI4DataNS_9allocatorIS1_EEE8capacityB7v160006Ev, symObjAddr: 0xCF70, symBinAddr: 0x100010BD0, symSize: 0x30 }
  - { offsetInCU: 0x1D4F7, offset: 0x1D4F7, size: 0x8, addend: 0x0, symName: __ZNKSt3__16vectorI4DataNS_9allocatorIS1_EEE31__annotate_contiguous_containerB7v160006EPKvS6_S6_S6_, symObjAddr: 0xCFA0, symBinAddr: 0x100010C00, symSize: 0x20 }
  - { offsetInCU: 0x1D549, offset: 0x1D549, size: 0x8, addend: 0x0, symName: __ZNKSt3__16vectorI4DataNS_9allocatorIS1_EEE4dataB7v160006Ev, symObjAddr: 0xCFC0, symBinAddr: 0x100010C20, symSize: 0x20 }
  - { offsetInCU: 0x1D56F, offset: 0x1D56F, size: 0x8, addend: 0x0, symName: __ZNSt3__16vectorI4DataNS_9allocatorIS1_EEE22__base_destruct_at_endB7v160006EPS1_, symObjAddr: 0xCFF0, symBinAddr: 0x100010C50, symSize: 0x80 }
  - { offsetInCU: 0x1D5B3, offset: 0x1D5B3, size: 0x8, addend: 0x0, symName: __ZNSt3__116allocator_traitsINS_9allocatorI4DataEEE7destroyB7v160006IS2_vEEvRS3_PT_, symObjAddr: 0xD070, symBinAddr: 0x100010CD0, symSize: 0x30 }
  - { offsetInCU: 0x1D5F0, offset: 0x1D5F0, size: 0x8, addend: 0x0, symName: __ZNSt3__19allocatorI4DataE7destroyB7v160006EPS1_, symObjAddr: 0xD0A0, symBinAddr: 0x100010D00, symSize: 0x20 }
  - { offsetInCU: 0x1D624, offset: 0x1D624, size: 0x8, addend: 0x0, symName: __ZNSt3__19allocatorI4DataE10deallocateB7v160006EPS1_m, symObjAddr: 0xD0C0, symBinAddr: 0x100010D20, symSize: 0x40 }
  - { offsetInCU: 0x1D666, offset: 0x1D666, size: 0x8, addend: 0x0, symName: __ZNSt3__117__compressed_pairIP4DataNS_9allocatorIS1_EEE6secondB7v160006Ev, symObjAddr: 0xD100, symBinAddr: 0x100010D60, symSize: 0x20 }
  - { offsetInCU: 0x1D68C, offset: 0x1D68C, size: 0x8, addend: 0x0, symName: __ZNSt3__122__compressed_pair_elemINS_9allocatorI4DataEELi1ELb1EE5__getB7v160006Ev, symObjAddr: 0xD120, symBinAddr: 0x100010D80, symSize: 0x10 }
  - { offsetInCU: 0x1D6B2, offset: 0x1D6B2, size: 0x8, addend: 0x0, symName: __ZNKSt3__16vectorI4DataNS_9allocatorIS1_EEE9__end_capB7v160006Ev, symObjAddr: 0xD130, symBinAddr: 0x100010D90, symSize: 0x20 }
  - { offsetInCU: 0x1D6D8, offset: 0x1D6D8, size: 0x8, addend: 0x0, symName: __ZNKSt3__117__compressed_pairIP4DataNS_9allocatorIS1_EEE5firstB7v160006Ev, symObjAddr: 0xD150, symBinAddr: 0x100010DB0, symSize: 0x20 }
  - { offsetInCU: 0x1D6FE, offset: 0x1D6FE, size: 0x8, addend: 0x0, symName: __ZNKSt3__122__compressed_pair_elemIP4DataLi0ELb0EE5__getB7v160006Ev, symObjAddr: 0xD170, symBinAddr: 0x100010DD0, symSize: 0x10 }
  - { offsetInCU: 0x1D724, offset: 0x1D724, size: 0x8, addend: 0x0, symName: __ZNKSt3__19basic_iosIcNS_11char_traitsIcEEE5widenB7v160006Ec, symObjAddr: 0xD180, symBinAddr: 0x100010DE0, symSize: 0x80 }
  - { offsetInCU: 0x1D792, offset: 0x1D792, size: 0x8, addend: 0x0, symName: __ZNKSt3__15ctypeIcE5widenB7v160006Ec, symObjAddr: 0xD230, symBinAddr: 0x100010E90, symSize: 0x30 }
  - { offsetInCU: 0x1D7C7, offset: 0x1D7C7, size: 0x8, addend: 0x0, symName: __ZNKSt3__19basic_iosIcNS_11char_traitsIcEEE4failB7v160006Ev, symObjAddr: 0xD260, symBinAddr: 0x100010EC0, symSize: 0x20 }
  - { offsetInCU: 0x1D7ED, offset: 0x1D7ED, size: 0x8, addend: 0x0, symName: __ZNKSt3__18ios_base4failB7v160006Ev, symObjAddr: 0xD280, symBinAddr: 0x100010EE0, symSize: 0x20 }
  - { offsetInCU: 0x1D815, offset: 0x1D815, size: 0x8, addend: 0x0, symName: __ZNSt3__114basic_iostreamIcNS_11char_traitsIcEEEC2B7v160006EPNS_15basic_streambufIcS2_EE, symObjAddr: 0xD2A0, symBinAddr: 0x100010F00, symSize: 0xA0 }
  - { offsetInCU: 0x1D85B, offset: 0x1D85B, size: 0x8, addend: 0x0, symName: __ZNSt3__115basic_stringbufIcNS_11char_traitsIcEENS_9allocatorIcEEEC1B7v160006ERKNS_12basic_stringIcS2_S4_EEj, symObjAddr: 0xD340, symBinAddr: 0x100010FA0, symSize: 0x30 }
  - { offsetInCU: 0x1D8A1, offset: 0x1D8A1, size: 0x8, addend: 0x0, symName: __ZNSt3__113basic_ostreamIcNS_11char_traitsIcEEEC2B7v160006Ev, symObjAddr: 0xD370, symBinAddr: 0x100010FD0, symSize: 0x30 }
  - { offsetInCU: 0x1D8D8, offset: 0x1D8D8, size: 0x8, addend: 0x0, symName: __ZNSt3__115basic_stringbufIcNS_11char_traitsIcEENS_9allocatorIcEEEC2B7v160006ERKNS_12basic_stringIcS2_S4_EEj, symObjAddr: 0xD3A0, symBinAddr: 0x100011000, symSize: 0xA0 }
  - { offsetInCU: 0x1D91E, offset: 0x1D91E, size: 0x8, addend: 0x0, symName: __ZNKSt3__112basic_stringIcNS_11char_traitsIcEENS_9allocatorIcEEE13get_allocatorB7v160006Ev, symObjAddr: 0xD440, symBinAddr: 0x1000110A0, symSize: 0x20 }
  - { offsetInCU: 0x1D944, offset: 0x1D944, size: 0x8, addend: 0x0, symName: __ZNSt3__112basic_stringIcNS_11char_traitsIcEENS_9allocatorIcEEEC1B7v160006ERKS4_, symObjAddr: 0xD460, symBinAddr: 0x1000110C0, symSize: 0x30 }
  - { offsetInCU: 0x1D97D, offset: 0x1D97D, size: 0x8, addend: 0x0, symName: __ZNKSt3__112basic_stringIcNS_11char_traitsIcEENS_9allocatorIcEEE7__allocB7v160006Ev, symObjAddr: 0xD490, symBinAddr: 0x1000110F0, symSize: 0x20 }
  - { offsetInCU: 0x1D9A3, offset: 0x1D9A3, size: 0x8, addend: 0x0, symName: __ZNKSt3__117__compressed_pairINS_12basic_stringIcNS_11char_traitsIcEENS_9allocatorIcEEE5__repES5_E6secondB7v160006Ev, symObjAddr: 0xD4B0, symBinAddr: 0x100011110, symSize: 0x20 }
  - { offsetInCU: 0x1D9C9, offset: 0x1D9C9, size: 0x8, addend: 0x0, symName: __ZNKSt3__122__compressed_pair_elemINS_9allocatorIcEELi1ELb1EE5__getB7v160006Ev, symObjAddr: 0xD4D0, symBinAddr: 0x100011130, symSize: 0x10 }
  - { offsetInCU: 0x1D9EF, offset: 0x1D9EF, size: 0x8, addend: 0x0, symName: __ZNSt3__112basic_stringIcNS_11char_traitsIcEENS_9allocatorIcEEEC2B7v160006ERKS4_, symObjAddr: 0xD4E0, symBinAddr: 0x100011140, symSize: 0x50 }
  - { offsetInCU: 0x1DA28, offset: 0x1DA28, size: 0x8, addend: 0x0, symName: __ZNSt3__117__compressed_pairINS_12basic_stringIcNS_11char_traitsIcEENS_9allocatorIcEEE5__repES5_EC1B7v160006INS_18__default_init_tagERKS5_EEOT_OT0_, symObjAddr: 0xD530, symBinAddr: 0x100011190, symSize: 0x30 }
  - { offsetInCU: 0x1DA80, offset: 0x1DA80, size: 0x8, addend: 0x0, symName: __ZNSt3__117__compressed_pairINS_12basic_stringIcNS_11char_traitsIcEENS_9allocatorIcEEE5__repES5_EC2B7v160006INS_18__default_init_tagERKS5_EEOT_OT0_, symObjAddr: 0xD560, symBinAddr: 0x1000111C0, symSize: 0x40 }
  - { offsetInCU: 0x1DAD8, offset: 0x1DAD8, size: 0x8, addend: 0x0, symName: __ZNSt3__122__compressed_pair_elemINS_9allocatorIcEELi1ELb1EEC2B7v160006IRKS2_vEEOT_, symObjAddr: 0xD5A0, symBinAddr: 0x100011200, symSize: 0x10 }
  - { offsetInCU: 0x1DB38, offset: 0x1DB38, size: 0x8, addend: 0x0, symName: __ZNKSt3__113basic_istreamIcNS_11char_traitsIcEEE6sentrycvbB7v160006Ev, symObjAddr: 0xD5B0, symBinAddr: 0x100011210, symSize: 0x20 }
  - { offsetInCU: 0x1DB5E, offset: 0x1DB5E, size: 0x8, addend: 0x0, symName: __ZNSt3__112basic_stringIcNS_11char_traitsIcEENS_9allocatorIcEEE5clearB7v160006Ev, symObjAddr: 0xD5D0, symBinAddr: 0x100011230, symSize: 0xA0 }
  - { offsetInCU: 0x1DB86, offset: 0x1DB86, size: 0x8, addend: 0x0, symName: __ZNKSt3__19basic_iosIcNS_11char_traitsIcEEE5rdbufB7v160006Ev, symObjAddr: 0xD670, symBinAddr: 0x1000112D0, symSize: 0x20 }
  - { offsetInCU: 0x1DBAE, offset: 0x1DBAE, size: 0x8, addend: 0x0, symName: __ZNSt3__115basic_streambufIcNS_11char_traitsIcEEE6sbumpcB7v160006Ev, symObjAddr: 0xD690, symBinAddr: 0x1000112F0, symSize: 0x60 }
  - { offsetInCU: 0x1DBD4, offset: 0x1DBD4, size: 0x8, addend: 0x0, symName: __ZNSt3__111char_traitsIcE11eq_int_typeEii, symObjAddr: 0xD6F0, symBinAddr: 0x100011350, symSize: 0x20 }
  - { offsetInCU: 0x1DC05, offset: 0x1DC05, size: 0x8, addend: 0x0, symName: __ZNSt3__111char_traitsIcE12to_char_typeEi, symObjAddr: 0xD710, symBinAddr: 0x100011370, symSize: 0x10 }
  - { offsetInCU: 0x1DC28, offset: 0x1DC28, size: 0x8, addend: 0x0, symName: __ZNSt3__111char_traitsIcE2eqEcc, symObjAddr: 0xD720, symBinAddr: 0x100011380, symSize: 0x30 }
  - { offsetInCU: 0x1DC59, offset: 0x1DC59, size: 0x8, addend: 0x0, symName: __ZNKSt3__112basic_stringIcNS_11char_traitsIcEENS_9allocatorIcEEE4sizeB7v160006Ev, symObjAddr: 0xD750, symBinAddr: 0x1000113B0, symSize: 0x50 }
  - { offsetInCU: 0x1DC7F, offset: 0x1DC7F, size: 0x8, addend: 0x0, symName: __ZNKSt3__112basic_stringIcNS_11char_traitsIcEENS_9allocatorIcEEE8max_sizeB7v160006Ev, symObjAddr: 0xD7A0, symBinAddr: 0x100011400, symSize: 0xA0 }
  - { offsetInCU: 0x1DCD2, offset: 0x1DCD2, size: 0x8, addend: 0x0, symName: __ZNSt3__18ios_base18__setstate_nothrowB7v160006Ej, symObjAddr: 0xD840, symBinAddr: 0x1000114A0, symSize: 0x50 }
  - { offsetInCU: 0x1DD07, offset: 0x1DD07, size: 0x8, addend: 0x0, symName: __ZNKSt3__19basic_iosIcNS_11char_traitsIcEEE10exceptionsB7v160006Ev, symObjAddr: 0xD890, symBinAddr: 0x1000114F0, symSize: 0x20 }
  - { offsetInCU: 0x1DD2D, offset: 0x1DD2D, size: 0x8, addend: 0x0, symName: __ZNKSt3__112basic_stringIcNS_11char_traitsIcEENS_9allocatorIcEEE9__is_longB7v160006Ev, symObjAddr: 0xD8C0, symBinAddr: 0x100011520, symSize: 0x30 }
  - { offsetInCU: 0x1DD53, offset: 0x1DD53, size: 0x8, addend: 0x0, symName: __ZNSt3__111char_traitsIcE6assignERcRKc, symObjAddr: 0xD8F0, symBinAddr: 0x100011550, symSize: 0x20 }
  - { offsetInCU: 0x1DD84, offset: 0x1DD84, size: 0x8, addend: 0x0, symName: __ZNSt3__112basic_stringIcNS_11char_traitsIcEENS_9allocatorIcEEE18__get_long_pointerB7v160006Ev, symObjAddr: 0xD910, symBinAddr: 0x100011570, symSize: 0x20 }
  - { offsetInCU: 0x1DDAA, offset: 0x1DDAA, size: 0x8, addend: 0x0, symName: __ZNSt3__112basic_stringIcNS_11char_traitsIcEENS_9allocatorIcEEE15__set_long_sizeB7v160006Em, symObjAddr: 0xD930, symBinAddr: 0x100011590, symSize: 0x30 }
  - { offsetInCU: 0x1DDDF, offset: 0x1DDDF, size: 0x8, addend: 0x0, symName: __ZNSt3__112basic_stringIcNS_11char_traitsIcEENS_9allocatorIcEEE19__get_short_pointerB7v160006Ev, symObjAddr: 0xD960, symBinAddr: 0x1000115C0, symSize: 0x30 }
  - { offsetInCU: 0x1DE05, offset: 0x1DE05, size: 0x8, addend: 0x0, symName: __ZNSt3__112basic_stringIcNS_11char_traitsIcEENS_9allocatorIcEEE16__set_short_sizeB7v160006Em, symObjAddr: 0xD990, symBinAddr: 0x1000115F0, symSize: 0x50 }
  - { offsetInCU: 0x1DE3A, offset: 0x1DE3A, size: 0x8, addend: 0x0, symName: __ZNKSt3__117__compressed_pairINS_12basic_stringIcNS_11char_traitsIcEENS_9allocatorIcEEE5__repES5_E5firstB7v160006Ev, symObjAddr: 0xD9E0, symBinAddr: 0x100011640, symSize: 0x20 }
  - { offsetInCU: 0x1DE60, offset: 0x1DE60, size: 0x8, addend: 0x0, symName: __ZNKSt3__122__compressed_pair_elemINS_12basic_stringIcNS_11char_traitsIcEENS_9allocatorIcEEE5__repELi0ELb0EE5__getB7v160006Ev, symObjAddr: 0xDA00, symBinAddr: 0x100011660, symSize: 0x10 }
  - { offsetInCU: 0x1DE86, offset: 0x1DE86, size: 0x8, addend: 0x0, symName: __ZNSt3__114pointer_traitsIPcE10pointer_toB7v160006ERc, symObjAddr: 0xDA10, symBinAddr: 0x100011670, symSize: 0x10 }
  - { offsetInCU: 0x1DEA9, offset: 0x1DEA9, size: 0x8, addend: 0x0, symName: __ZNKSt3__18ios_base5rdbufB7v160006Ev, symObjAddr: 0xDA20, symBinAddr: 0x100011680, symSize: 0x20 }
  - { offsetInCU: 0x1DECF, offset: 0x1DECF, size: 0x8, addend: 0x0, symName: __ZNSt3__111char_traitsIcE11to_int_typeEc, symObjAddr: 0xDA40, symBinAddr: 0x1000116A0, symSize: 0x10 }
  - { offsetInCU: 0x1DEF2, offset: 0x1DEF2, size: 0x8, addend: 0x0, symName: __ZNKSt3__112basic_stringIcNS_11char_traitsIcEENS_9allocatorIcEEE15__get_long_sizeB7v160006Ev, symObjAddr: 0xDA50, symBinAddr: 0x1000116B0, symSize: 0x20 }
  - { offsetInCU: 0x1DF18, offset: 0x1DF18, size: 0x8, addend: 0x0, symName: __ZNKSt3__112basic_stringIcNS_11char_traitsIcEENS_9allocatorIcEEE16__get_short_sizeB7v160006Ev, symObjAddr: 0xDA70, symBinAddr: 0x1000116D0, symSize: 0x30 }
  - { offsetInCU: 0x1DF48, offset: 0x1DF48, size: 0x8, addend: 0x0, symName: __ZNSt3__116allocator_traitsINS_9allocatorIcEEE8max_sizeB7v160006IS2_vEEmRKS2_, symObjAddr: 0xDAA0, symBinAddr: 0x100011700, symSize: 0x20 }
  - { offsetInCU: 0x1DF76, offset: 0x1DF76, size: 0x8, addend: 0x0, symName: __ZNSt3__114numeric_limitsImE3maxB7v160006Ev, symObjAddr: 0xDAC0, symBinAddr: 0x100011720, symSize: 0x10 }
  - { offsetInCU: 0x1DF8A, offset: 0x1DF8A, size: 0x8, addend: 0x0, symName: __ZNKSt3__19allocatorIcE8max_sizeB7v160006Ev, symObjAddr: 0xDAD0, symBinAddr: 0x100011730, symSize: 0x20 }
  - { offsetInCU: 0x1DFB0, offset: 0x1DFB0, size: 0x8, addend: 0x0, symName: __ZNSt3__123__libcpp_numeric_limitsImLb1EE3maxB7v160006Ev, symObjAddr: 0xDAF0, symBinAddr: 0x100011750, symSize: 0x10 }
  - { offsetInCU: 0x1DFC4, offset: 0x1DFC4, size: 0x8, addend: 0x0, symName: __ZNKSt3__18ios_base10exceptionsB7v160006Ev, symObjAddr: 0xDB00, symBinAddr: 0x100011760, symSize: 0x20 }
  - { offsetInCU: 0x1DFEC, offset: 0x1DFEC, size: 0x8, addend: 0x0, symName: __ZNSt3__16vectorIfNS_9allocatorIfEEE22__construct_one_at_endB7v160006IJRKfEEEvDpOT_, symObjAddr: 0xDB20, symBinAddr: 0x100011780, symSize: 0x90 }
  - { offsetInCU: 0x1E03B, offset: 0x1E03B, size: 0x8, addend: 0x0, symName: __ZNSt3__16vectorIfNS_9allocatorIfEEE21__push_back_slow_pathIRKfEEvOT_, symObjAddr: 0xDBB0, symBinAddr: 0x100011810, symSize: 0xD0 }
  - { offsetInCU: 0x1E099, offset: 0x1E099, size: 0x8, addend: 0x0, symName: __ZNSt3__116allocator_traitsINS_9allocatorIfEEE9constructB7v160006IfJRKfEvEEvRS2_PT_DpOT0_, symObjAddr: 0xDC80, symBinAddr: 0x1000118E0, symSize: 0x30 }
  - { offsetInCU: 0x1E0F0, offset: 0x1E0F0, size: 0x8, addend: 0x0, symName: __ZNSt3__19allocatorIfE9constructB7v160006IfJRKfEEEvPT_DpOT0_, symObjAddr: 0xDCB0, symBinAddr: 0x100011910, symSize: 0x30 }
  - { offsetInCU: 0x1E146, offset: 0x1E146, size: 0x8, addend: 0x0, symName: __ZNSt3__16vectorI4DataNS_9allocatorIS1_EEE9__end_capB7v160006Ev, symObjAddr: 0xDCE0, symBinAddr: 0x100011940, symSize: 0x20 }
  - { offsetInCU: 0x1E16C, offset: 0x1E16C, size: 0x8, addend: 0x0, symName: __ZNSt3__16vectorI4DataNS_9allocatorIS1_EEE22__construct_one_at_endB7v160006IJRKS1_EEEvDpOT_, symObjAddr: 0xDD00, symBinAddr: 0x100011960, symSize: 0x90 }
  - { offsetInCU: 0x1E1BB, offset: 0x1E1BB, size: 0x8, addend: 0x0, symName: __ZNSt3__16vectorI4DataNS_9allocatorIS1_EEE21__push_back_slow_pathIRKS1_EEvOT_, symObjAddr: 0xDD90, symBinAddr: 0x1000119F0, symSize: 0xD0 }
  - { offsetInCU: 0x1E219, offset: 0x1E219, size: 0x8, addend: 0x0, symName: __ZNSt3__117__compressed_pairIP4DataNS_9allocatorIS1_EEE5firstB7v160006Ev, symObjAddr: 0xDE60, symBinAddr: 0x100011AC0, symSize: 0x20 }
  - { offsetInCU: 0x1E23F, offset: 0x1E23F, size: 0x8, addend: 0x0, symName: __ZNSt3__122__compressed_pair_elemIP4DataLi0ELb0EE5__getB7v160006Ev, symObjAddr: 0xDE80, symBinAddr: 0x100011AE0, symSize: 0x10 }
  - { offsetInCU: 0x1E27E, offset: 0x1E27E, size: 0x8, addend: 0x0, symName: __ZNSt3__16vectorI4DataNS_9allocatorIS1_EEE21_ConstructTransactionC1B7v160006ERS4_m, symObjAddr: 0xDE90, symBinAddr: 0x100011AF0, symSize: 0x30 }
  - { offsetInCU: 0x1E2C6, offset: 0x1E2C6, size: 0x8, addend: 0x0, symName: __ZNSt3__116allocator_traitsINS_9allocatorI4DataEEE9constructB7v160006IS2_JRKS2_EvEEvRS3_PT_DpOT0_, symObjAddr: 0xDEC0, symBinAddr: 0x100011B20, symSize: 0x30 }
  - { offsetInCU: 0x1E31D, offset: 0x1E31D, size: 0x8, addend: 0x0, symName: __ZNSt3__16vectorI4DataNS_9allocatorIS1_EEE21_ConstructTransactionD1B7v160006Ev, symObjAddr: 0xDEF0, symBinAddr: 0x100011B50, symSize: 0x20 }
  - { offsetInCU: 0x1E347, offset: 0x1E347, size: 0x8, addend: 0x0, symName: __ZNSt3__16vectorI4DataNS_9allocatorIS1_EEE21_ConstructTransactionC2B7v160006ERS4_m, symObjAddr: 0xDF10, symBinAddr: 0x100011B70, symSize: 0x40 }
  - { offsetInCU: 0x1E38F, offset: 0x1E38F, size: 0x8, addend: 0x0, symName: __ZNSt3__19allocatorI4DataE9constructB7v160006IS1_JRKS1_EEEvPT_DpOT0_, symObjAddr: 0xDF50, symBinAddr: 0x100011BB0, symSize: 0x30 }
  - { offsetInCU: 0x1E3E5, offset: 0x1E3E5, size: 0x8, addend: 0x0, symName: __ZN4DataC1ERKS_, symObjAddr: 0xDF80, symBinAddr: 0x100011BE0, symSize: 0x30 }
  - { offsetInCU: 0x1E41A, offset: 0x1E41A, size: 0x8, addend: 0x0, symName: __ZN4DataC2ERKS_, symObjAddr: 0xDFB0, symBinAddr: 0x100011C10, symSize: 0x40 }
  - { offsetInCU: 0x1E44F, offset: 0x1E44F, size: 0x8, addend: 0x0, symName: __ZNSt3__16vectorI4DataNS_9allocatorIS1_EEE21_ConstructTransactionD2B7v160006Ev, symObjAddr: 0xDFF0, symBinAddr: 0x100011C50, symSize: 0x20 }
  - { offsetInCU: 0x1E479, offset: 0x1E479, size: 0x8, addend: 0x0, symName: __ZNKSt3__16vectorI4DataNS_9allocatorIS1_EEE11__recommendB7v160006Em, symObjAddr: 0xE010, symBinAddr: 0x100011C70, symSize: 0xA0 }
  - { offsetInCU: 0x1E4CE, offset: 0x1E4CE, size: 0x8, addend: 0x0, symName: __ZNSt3__114__split_bufferI4DataRNS_9allocatorIS1_EEEC1EmmS4_, symObjAddr: 0xE0B0, symBinAddr: 0x100011D10, symSize: 0x40 }
  - { offsetInCU: 0x1E524, offset: 0x1E524, size: 0x8, addend: 0x0, symName: __ZNSt3__114__split_bufferI4DataRNS_9allocatorIS1_EEED1Ev, symObjAddr: 0xE220, symBinAddr: 0x100011E80, symSize: 0x20 }
  - { offsetInCU: 0x1E550, offset: 0x1E550, size: 0x8, addend: 0x0, symName: __ZNKSt3__16vectorI4DataNS_9allocatorIS1_EEE8max_sizeEv, symObjAddr: 0xE240, symBinAddr: 0x100011EA0, symSize: 0x60 }
  - { offsetInCU: 0x1E578, offset: 0x1E578, size: 0x8, addend: 0x0, symName: __ZNKSt3__16vectorI4DataNS_9allocatorIS1_EEE20__throw_length_errorB7v160006Ev, symObjAddr: 0xE2A0, symBinAddr: 0x100011F00, symSize: 0x20 }
  - { offsetInCU: 0x1E5A8, offset: 0x1E5A8, size: 0x8, addend: 0x0, symName: __ZNSt3__116allocator_traitsINS_9allocatorI4DataEEE8max_sizeB7v160006IS3_vEEmRKS3_, symObjAddr: 0xE2C0, symBinAddr: 0x100011F20, symSize: 0x20 }
  - { offsetInCU: 0x1E5D6, offset: 0x1E5D6, size: 0x8, addend: 0x0, symName: __ZNKSt3__16vectorI4DataNS_9allocatorIS1_EEE7__allocB7v160006Ev, symObjAddr: 0xE2E0, symBinAddr: 0x100011F40, symSize: 0x20 }
  - { offsetInCU: 0x1E5FC, offset: 0x1E5FC, size: 0x8, addend: 0x0, symName: __ZNKSt3__19allocatorI4DataE8max_sizeB7v160006Ev, symObjAddr: 0xE300, symBinAddr: 0x100011F60, symSize: 0x20 }
  - { offsetInCU: 0x1E622, offset: 0x1E622, size: 0x8, addend: 0x0, symName: __ZNKSt3__117__compressed_pairIP4DataNS_9allocatorIS1_EEE6secondB7v160006Ev, symObjAddr: 0xE320, symBinAddr: 0x100011F80, symSize: 0x20 }
  - { offsetInCU: 0x1E648, offset: 0x1E648, size: 0x8, addend: 0x0, symName: __ZNKSt3__122__compressed_pair_elemINS_9allocatorI4DataEELi1ELb1EE5__getB7v160006Ev, symObjAddr: 0xE340, symBinAddr: 0x100011FA0, symSize: 0x10 }
  - { offsetInCU: 0x1E66E, offset: 0x1E66E, size: 0x8, addend: 0x0, symName: __ZNSt3__114__split_bufferI4DataRNS_9allocatorIS1_EEEC2EmmS4_, symObjAddr: 0xE350, symBinAddr: 0x100011FB0, symSize: 0xD0 }
  - { offsetInCU: 0x1E6E2, offset: 0x1E6E2, size: 0x8, addend: 0x0, symName: __ZNSt3__117__compressed_pairIP4DataRNS_9allocatorIS1_EEEC1B7v160006IDnS5_EEOT_OT0_, symObjAddr: 0xE420, symBinAddr: 0x100012080, symSize: 0x30 }
  - { offsetInCU: 0x1E73A, offset: 0x1E73A, size: 0x8, addend: 0x0, symName: __ZNSt3__114__split_bufferI4DataRNS_9allocatorIS1_EEE7__allocB7v160006Ev, symObjAddr: 0xE490, symBinAddr: 0x1000120F0, symSize: 0x20 }
  - { offsetInCU: 0x1E760, offset: 0x1E760, size: 0x8, addend: 0x0, symName: __ZNSt3__114__split_bufferI4DataRNS_9allocatorIS1_EEE9__end_capB7v160006Ev, symObjAddr: 0xE4B0, symBinAddr: 0x100012110, symSize: 0x20 }
  - { offsetInCU: 0x1E786, offset: 0x1E786, size: 0x8, addend: 0x0, symName: __ZNSt3__117__compressed_pairIP4DataRNS_9allocatorIS1_EEEC2B7v160006IDnS5_EEOT_OT0_, symObjAddr: 0xE4D0, symBinAddr: 0x100012130, symSize: 0x40 }
  - { offsetInCU: 0x1E7DE, offset: 0x1E7DE, size: 0x8, addend: 0x0, symName: __ZNSt3__122__compressed_pair_elemIRNS_9allocatorI4DataEELi1ELb0EEC2B7v160006IS4_vEEOT_, symObjAddr: 0xE510, symBinAddr: 0x100012170, symSize: 0x20 }
  - { offsetInCU: 0x1E820, offset: 0x1E820, size: 0x8, addend: 0x0, symName: __ZNSt3__19allocatorI4DataE8allocateB7v160006Em, symObjAddr: 0xE530, symBinAddr: 0x100012190, symSize: 0x50 }
  - { offsetInCU: 0x1E854, offset: 0x1E854, size: 0x8, addend: 0x0, symName: __ZNSt3__117__compressed_pairIP4DataRNS_9allocatorIS1_EEE6secondB7v160006Ev, symObjAddr: 0xE580, symBinAddr: 0x1000121E0, symSize: 0x20 }
  - { offsetInCU: 0x1E87A, offset: 0x1E87A, size: 0x8, addend: 0x0, symName: __ZNSt3__122__compressed_pair_elemIRNS_9allocatorI4DataEELi1ELb0EE5__getB7v160006Ev, symObjAddr: 0xE5A0, symBinAddr: 0x100012200, symSize: 0x20 }
  - { offsetInCU: 0x1E8A0, offset: 0x1E8A0, size: 0x8, addend: 0x0, symName: __ZNSt3__117__compressed_pairIP4DataRNS_9allocatorIS1_EEE5firstB7v160006Ev, symObjAddr: 0xE5C0, symBinAddr: 0x100012220, symSize: 0x20 }
  - { offsetInCU: 0x1E8C6, offset: 0x1E8C6, size: 0x8, addend: 0x0, symName: __ZNSt3__116reverse_iteratorIP4DataEC1B7v160006ES2_, symObjAddr: 0xE760, symBinAddr: 0x1000123C0, symSize: 0x30 }
  - { offsetInCU: 0x1E8FE, offset: 0x1E8FE, size: 0x8, addend: 0x0, symName: __ZNKSt3__116reverse_iteratorIP4DataE4baseB7v160006Ev, symObjAddr: 0xE790, symBinAddr: 0x1000123F0, symSize: 0x20 }
  - { offsetInCU: 0x1E924, offset: 0x1E924, size: 0x8, addend: 0x0, symName: __ZNKSt3__16vectorI4DataNS_9allocatorIS1_EEE14__annotate_newB7v160006Em, symObjAddr: 0xE7F0, symBinAddr: 0x100012450, symSize: 0xB0 }
  - { offsetInCU: 0x1E959, offset: 0x1E959, size: 0x8, addend: 0x0, symName: __ZNSt3__129_AllocatorDestroyRangeReverseINS_9allocatorI4DataEENS_16reverse_iteratorIPS2_EEEC1B7v160006ERS3_RS6_S9_, symObjAddr: 0xE910, symBinAddr: 0x100012570, symSize: 0x40 }
  - { offsetInCU: 0x1E9B5, offset: 0x1E9B5, size: 0x8, addend: 0x0, symName: __ZNSt3__116allocator_traitsINS_9allocatorI4DataEEE9constructB7v160006IS2_JS2_EvEEvRS3_PT_DpOT0_, symObjAddr: 0xE990, symBinAddr: 0x1000125F0, symSize: 0x30 }
  - { offsetInCU: 0x1EA0C, offset: 0x1EA0C, size: 0x8, addend: 0x0, symName: __ZNKSt3__116reverse_iteratorIP4DataEdeB7v160006Ev, symObjAddr: 0xE9E0, symBinAddr: 0x100012640, symSize: 0x30 }
  - { offsetInCU: 0x1EA40, offset: 0x1EA40, size: 0x8, addend: 0x0, symName: __ZNSt3__116reverse_iteratorIP4DataEppB7v160006Ev, symObjAddr: 0xEA10, symBinAddr: 0x100012670, symSize: 0x20 }
  - { offsetInCU: 0x1EA66, offset: 0x1EA66, size: 0x8, addend: 0x0, symName: __ZNSt3__128__exception_guard_exceptionsINS_29_AllocatorDestroyRangeReverseINS_9allocatorI4DataEENS_16reverse_iteratorIPS3_EEEEE10__completeB7v160006Ev, symObjAddr: 0xEA30, symBinAddr: 0x100012690, symSize: 0x20 }
  - { offsetInCU: 0x1EA8C, offset: 0x1EA8C, size: 0x8, addend: 0x0, symName: __ZNSt3__128__exception_guard_exceptionsINS_29_AllocatorDestroyRangeReverseINS_9allocatorI4DataEENS_16reverse_iteratorIPS3_EEEEED1B7v160006Ev, symObjAddr: 0xEA50, symBinAddr: 0x1000126B0, symSize: 0x20 }
  - { offsetInCU: 0x1EAB6, offset: 0x1EAB6, size: 0x8, addend: 0x0, symName: __ZNSt3__128__exception_guard_exceptionsINS_29_AllocatorDestroyRangeReverseINS_9allocatorI4DataEENS_16reverse_iteratorIPS3_EEEEEC1B7v160006ES8_, symObjAddr: 0xEA70, symBinAddr: 0x1000126D0, symSize: 0x40 }
  - { offsetInCU: 0x1EAEE, offset: 0x1EAEE, size: 0x8, addend: 0x0, symName: __ZNSt3__128__exception_guard_exceptionsINS_29_AllocatorDestroyRangeReverseINS_9allocatorI4DataEENS_16reverse_iteratorIPS3_EEEEEC2B7v160006ES8_, symObjAddr: 0xEAB0, symBinAddr: 0x100012710, symSize: 0x30 }
  - { offsetInCU: 0x1EB26, offset: 0x1EB26, size: 0x8, addend: 0x0, symName: __ZNSt3__129_AllocatorDestroyRangeReverseINS_9allocatorI4DataEENS_16reverse_iteratorIPS2_EEEC2B7v160006ERS3_RS6_S9_, symObjAddr: 0xEAE0, symBinAddr: 0x100012740, symSize: 0x40 }
  - { offsetInCU: 0x1EB7D, offset: 0x1EB7D, size: 0x8, addend: 0x0, symName: __ZNSt3__19allocatorI4DataE9constructB7v160006IS1_JS1_EEEvPT_DpOT0_, symObjAddr: 0xEB20, symBinAddr: 0x100012780, symSize: 0x30 }
  - { offsetInCU: 0x1EBD3, offset: 0x1EBD3, size: 0x8, addend: 0x0, symName: __ZN4DataC1EOS_, symObjAddr: 0xEB50, symBinAddr: 0x1000127B0, symSize: 0x30 }
  - { offsetInCU: 0x1EC08, offset: 0x1EC08, size: 0x8, addend: 0x0, symName: __ZN4DataC2EOS_, symObjAddr: 0xEB80, symBinAddr: 0x1000127E0, symSize: 0x40 }
  - { offsetInCU: 0x1EC42, offset: 0x1EC42, size: 0x8, addend: 0x0, symName: __ZNSt3__119__to_address_helperINS_16reverse_iteratorIP4DataEEvE6__callB7v160006ERKS4_, symObjAddr: 0xEBC0, symBinAddr: 0x100012820, symSize: 0x40 }
  - { offsetInCU: 0x1EC65, offset: 0x1EC65, size: 0x8, addend: 0x0, symName: __ZNKSt3__116reverse_iteratorIP4DataEptB7v160006Ev, symObjAddr: 0xEC00, symBinAddr: 0x100012860, symSize: 0x20 }
  - { offsetInCU: 0x1EC8B, offset: 0x1EC8B, size: 0x8, addend: 0x0, symName: __ZNSt3__128__exception_guard_exceptionsINS_29_AllocatorDestroyRangeReverseINS_9allocatorI4DataEENS_16reverse_iteratorIPS3_EEEEED2B7v160006Ev, symObjAddr: 0xEC20, symBinAddr: 0x100012880, symSize: 0x40 }
  - { offsetInCU: 0x1ECB5, offset: 0x1ECB5, size: 0x8, addend: 0x0, symName: __ZNKSt3__129_AllocatorDestroyRangeReverseINS_9allocatorI4DataEENS_16reverse_iteratorIPS2_EEEclB7v160006Ev, symObjAddr: 0xEC60, symBinAddr: 0x1000128C0, symSize: 0xF0 }
  - { offsetInCU: 0x1ECDC, offset: 0x1ECDC, size: 0x8, addend: 0x0, symName: __ZNSt3__116reverse_iteratorINS0_IP4DataEEEC1B7v160006ES3_, symObjAddr: 0xEDC0, symBinAddr: 0x100012A20, symSize: 0x30 }
  - { offsetInCU: 0x1ED14, offset: 0x1ED14, size: 0x8, addend: 0x0, symName: __ZNSt3__116reverse_iteratorINS0_IP4DataEEEppB7v160006Ev, symObjAddr: 0xEE60, symBinAddr: 0x100012AC0, symSize: 0x30 }
  - { offsetInCU: 0x1ED3A, offset: 0x1ED3A, size: 0x8, addend: 0x0, symName: __ZNKSt3__116reverse_iteratorINS0_IP4DataEEE4baseB7v160006Ev, symObjAddr: 0xEE90, symBinAddr: 0x100012AF0, symSize: 0x20 }
  - { offsetInCU: 0x1ED65, offset: 0x1ED65, size: 0x8, addend: 0x0, symName: __ZNSt3__119__to_address_helperINS_16reverse_iteratorINS1_IP4DataEEEEvE6__callB7v160006ERKS5_, symObjAddr: 0xEEB0, symBinAddr: 0x100012B10, symSize: 0x40 }
  - { offsetInCU: 0x1ED88, offset: 0x1ED88, size: 0x8, addend: 0x0, symName: __ZNKSt3__116reverse_iteratorINS0_IP4DataEEEptB7v160006Ev, symObjAddr: 0xEEF0, symBinAddr: 0x100012B50, symSize: 0x20 }
  - { offsetInCU: 0x1EDAE, offset: 0x1EDAE, size: 0x8, addend: 0x0, symName: __ZNKSt3__116reverse_iteratorINS0_IP4DataEEEdeB7v160006Ev, symObjAddr: 0xEF10, symBinAddr: 0x100012B70, symSize: 0x40 }
  - { offsetInCU: 0x1EDE2, offset: 0x1EDE2, size: 0x8, addend: 0x0, symName: __ZNSt3__116reverse_iteratorIP4DataEmmB7v160006Ev, symObjAddr: 0xEF50, symBinAddr: 0x100012BB0, symSize: 0x20 }
  - { offsetInCU: 0x1EE08, offset: 0x1EE08, size: 0x8, addend: 0x0, symName: __ZNSt3__116reverse_iteratorINS0_IP4DataEEEC2B7v160006ES3_, symObjAddr: 0xEF70, symBinAddr: 0x100012BD0, symSize: 0x40 }
  - { offsetInCU: 0x1EE40, offset: 0x1EE40, size: 0x8, addend: 0x0, symName: __ZNSt3__116reverse_iteratorIP4DataEC2B7v160006ES2_, symObjAddr: 0xEFB0, symBinAddr: 0x100012C10, symSize: 0x30 }
  - { offsetInCU: 0x1EE78, offset: 0x1EE78, size: 0x8, addend: 0x0, symName: __ZNSt3__114__split_bufferI4DataRNS_9allocatorIS1_EEED2Ev, symObjAddr: 0xEFE0, symBinAddr: 0x100012C40, symSize: 0x70 }
  - { offsetInCU: 0x1EEA4, offset: 0x1EEA4, size: 0x8, addend: 0x0, symName: __ZNSt3__114__split_bufferI4DataRNS_9allocatorIS1_EEE5clearB7v160006Ev, symObjAddr: 0xF050, symBinAddr: 0x100012CB0, symSize: 0x20 }
  - { offsetInCU: 0x1EECA, offset: 0x1EECA, size: 0x8, addend: 0x0, symName: __ZNKSt3__114__split_bufferI4DataRNS_9allocatorIS1_EEE8capacityB7v160006Ev, symObjAddr: 0xF070, symBinAddr: 0x100012CD0, symSize: 0x30 }
  - { offsetInCU: 0x1EEF0, offset: 0x1EEF0, size: 0x8, addend: 0x0, symName: __ZNSt3__114__split_bufferI4DataRNS_9allocatorIS1_EEE17__destruct_at_endB7v160006EPS1_, symObjAddr: 0xF0A0, symBinAddr: 0x100012D00, symSize: 0x30 }
  - { offsetInCU: 0x1EF24, offset: 0x1EF24, size: 0x8, addend: 0x0, symName: __ZNSt3__114__split_bufferI4DataRNS_9allocatorIS1_EEE17__destruct_at_endB7v160006EPS1_NS_17integral_constantIbLb0EEE, symObjAddr: 0xF0D0, symBinAddr: 0x100012D30, symSize: 0x80 }
  - { offsetInCU: 0x1EF64, offset: 0x1EF64, size: 0x8, addend: 0x0, symName: __ZNKSt3__114__split_bufferI4DataRNS_9allocatorIS1_EEE9__end_capB7v160006Ev, symObjAddr: 0xF150, symBinAddr: 0x100012DB0, symSize: 0x20 }
  - { offsetInCU: 0x1EF8A, offset: 0x1EF8A, size: 0x8, addend: 0x0, symName: __ZNKSt3__117__compressed_pairIP4DataRNS_9allocatorIS1_EEE5firstB7v160006Ev, symObjAddr: 0xF170, symBinAddr: 0x100012DD0, symSize: 0x1B }
...
