---
triple:          'x86_64-apple-darwin'
binary-path:     '/Users/mauricioapaza/Desktop/PRKm/prueba'
relocations:
  - { offsetInCU: 0x548B, offset: 0x548B, size: 0x8, addend: 0x0, symName: __ZNSt3__16chronomiB7v160006IxNS_5ratioILl1ELl1000000000EEExS3_EENS_11common_typeIJNS0_8durationIT_T0_EENS5_IT1_T2_EEEE4typeERKS8_RKSB_, symObjAddr: 0x41D0, symBinAddr: 0x100005F20, symSize: 0x70 }
  - { offsetInCU: 0x5500, offset: 0x5500, size: 0x8, addend: 0x0, symName: __ZNSt3__16chrono13duration_castB7v160006INS0_8durationIxNS_5ratioILl1ELl1000000EEEEExNS3_ILl1ELl1000000000EEEEENS_9enable_ifIXsr13__is_durationIT_EE5valueES8_E4typeERKNS2_IT0_T1_EE, symObjAddr: 0x3C20, symBinAddr: 0x100005970, symSize: 0x30 }
  - { offsetInCU: 0x5547, offset: 0x5547, size: 0x8, addend: 0x0, symName: __ZNSt3__16chronomiB7v160006INS0_12steady_clockENS0_8durationIxNS_5ratioILl1ELl1000000000EEEEES6_EENS_11common_typeIJT0_T1_EE4typeERKNS0_10time_pointIT_S8_EERKNSC_ISD_S9_EE, symObjAddr: 0x3C50, symBinAddr: 0x1000059A0, symSize: 0x50 }
  - { offsetInCU: 0x96E1, offset: 0x96E1, size: 0x8, addend: 0x0, symName: __ZNSt3__124__put_character_sequenceB7v160006IcNS_11char_traitsIcEEEERNS_13basic_ostreamIT_T0_EES7_PKS4_m, symObjAddr: 0x90B0, symBinAddr: 0x10000AE00, symSize: 0x1F0 }
  - { offsetInCU: 0xAC85, offset: 0xAC85, size: 0x8, addend: 0x0, symName: __ZNSt3__1mlB7v160006INS_8valarrayIfEEEENS_9enable_ifIXsr13__is_val_exprIT_EE5valueENS_10__val_exprINS_9_BinaryOpINS_10multipliesINS4_10value_typeEEES4_NS_13__scalar_exprIS8_EEEEEEE4typeERKS4_RKS8_, symObjAddr: 0x50, symBinAddr: 0x100001DA0, symSize: 0x70 }
  - { offsetInCU: 0xACCB, offset: 0xACCB, size: 0x8, addend: 0x0, symName: __ZNSt3__1mlB7v160006INS_8valarrayIfEES2_EENS_9enable_ifIXaasr13__is_val_exprIT_EE5valuesr13__is_val_exprIT0_EE5valueENS_10__val_exprINS_9_BinaryOpINS_10multipliesINS4_10value_typeEEES4_S5_EEEEE4typeERKS4_RKS5_, symObjAddr: 0x530, symBinAddr: 0x100002280, symSize: 0x50 }
  - { offsetInCU: 0xAD1A, offset: 0xAD1A, size: 0x8, addend: 0x0, symName: __ZNSt3__1mlB7v160006INS_8valarrayINS1_IfEEEES3_EENS_9enable_ifIXaasr13__is_val_exprIT_EE5valuesr13__is_val_exprIT0_EE5valueENS_10__val_exprINS_9_BinaryOpINS_10multipliesINS5_10value_typeEEES5_S6_EEEEE4typeERKS5_RKS6_, symObjAddr: 0xBA0, symBinAddr: 0x1000028F0, symSize: 0x50 }
  - { offsetInCU: 0xAD69, offset: 0xAD69, size: 0x8, addend: 0x0, symName: __ZNSt3__1plB7v160006INS_10__val_exprINS_9_BinaryOpINS_4plusINS_8valarrayIfEEEENS4_IS5_EES7_EEEES7_EENS_9enable_ifIXaasr13__is_val_exprIT_EE5valuesr13__is_val_exprIT0_EE5valueENS1_INS2_INS3_INSB_10value_typeEEESB_SC_EEEEE4typeERKSB_RKSC_, symObjAddr: 0x1110, symBinAddr: 0x100002E60, symSize: 0x50 }
  - { offsetInCU: 0xADB8, offset: 0xADB8, size: 0x8, addend: 0x0, symName: __ZNSt3__1plB7v160006INS_8valarrayINS1_IfEEEES3_EENS_9enable_ifIXaasr13__is_val_exprIT_EE5valuesr13__is_val_exprIT0_EE5valueENS_10__val_exprINS_9_BinaryOpINS_4plusINS5_10value_typeEEES5_S6_EEEEE4typeERKS5_RKS6_, symObjAddr: 0x1160, symBinAddr: 0x100002EB0, symSize: 0x50 }
  - { offsetInCU: 0xAE07, offset: 0xAE07, size: 0x8, addend: 0x0, symName: __ZNSt3__1neB7v160006INS_8valarrayIiEES2_EENS_9enable_ifIXaasr13__is_val_exprIT_EE5valuesr13__is_val_exprIT0_EE5valueENS_10__val_exprINS_9_BinaryOpINS_12not_equal_toINS4_10value_typeEEES4_S5_EEEEE4typeERKS4_RKS5_, symObjAddr: 0x1FB0, symBinAddr: 0x100003D00, symSize: 0x50 }
  - { offsetInCU: 0xAE56, offset: 0xAE56, size: 0x8, addend: 0x0, symName: __ZNSt3__1eqB7v160006INS_8valarrayIiEEEENS_9enable_ifIXsr13__is_val_exprIT_EE5valueENS_10__val_exprINS_9_BinaryOpINS_8equal_toINS4_10value_typeEEES4_NS_13__scalar_exprIS8_EEEEEEE4typeERKS4_RKS8_, symObjAddr: 0x2150, symBinAddr: 0x100003EA0, symSize: 0x70 }
  - { offsetInCU: 0xAE9C, offset: 0xAE9C, size: 0x8, addend: 0x0, symName: __ZNSt3__1dvB7v160006INS_8valarrayIfEEEENS_9enable_ifIXsr13__is_val_exprIT_EE5valueENS_10__val_exprINS_9_BinaryOpINS_7dividesINS4_10value_typeEEES4_NS_13__scalar_exprIS8_EEEEEEE4typeERKS4_RKS8_, symObjAddr: 0x2370, symBinAddr: 0x1000040C0, symSize: 0x70 }
  - { offsetInCU: 0xAEE2, offset: 0xAEE2, size: 0x8, addend: 0x0, symName: __ZNSt3__13maxB7v160006IfEERKT_S3_S3_, symObjAddr: 0x2D90, symBinAddr: 0x100004AE0, symSize: 0x30 }
  - { offsetInCU: 0xAF25, offset: 0xAF25, size: 0x8, addend: 0x0, symName: __ZNSt3__1dvB7v160006INS_10__val_exprINS_9_BinaryOpINS_5minusIfEENS_8valarrayIfEES6_EEEES6_EENS_9enable_ifIXaasr13__is_val_exprIT_EE5valuesr13__is_val_exprIT0_EE5valueENS1_INS2_INS_7dividesINSA_10value_typeEEESA_SB_EEEEE4typeERKSA_RKSB_, symObjAddr: 0x2DC0, symBinAddr: 0x100004B10, symSize: 0x50 }
  - { offsetInCU: 0xAF74, offset: 0xAF74, size: 0x8, addend: 0x0, symName: __ZNSt3__1miB7v160006INS_8valarrayIfEES2_EENS_9enable_ifIXaasr13__is_val_exprIT_EE5valuesr13__is_val_exprIT0_EE5valueENS_10__val_exprINS_9_BinaryOpINS_5minusINS4_10value_typeEEES4_S5_EEEEE4typeERKS4_RKS5_, symObjAddr: 0x2E10, symBinAddr: 0x100004B60, symSize: 0x50 }
  - { offsetInCU: 0xBD6B, offset: 0xBD6B, size: 0x8, addend: 0x0, symName: __ZNSt3__17getlineB7v160006IcNS_11char_traitsIcEENS_9allocatorIcEEEERNS_13basic_istreamIT_T0_EES9_RNS_12basic_stringIS6_S7_T1_EE, symObjAddr: 0x3770, symBinAddr: 0x1000054C0, symSize: 0x50 }
  - { offsetInCU: 0xC1B3, offset: 0xC1B3, size: 0x8, addend: 0x0, symName: __ZNSt3__17getlineB7v160006IcNS_11char_traitsIcEENS_9allocatorIcEEEERNS_13basic_istreamIT_T0_EES9_RNS_12basic_stringIS6_S7_T1_EES6_, symObjAddr: 0x3910, symBinAddr: 0x100005660, symSize: 0x220 }
  - { offsetInCU: 0xC27C, offset: 0xC27C, size: 0x8, addend: 0x0, symName: __ZNSt3__1lsB7v160006INS_11char_traitsIcEEEERNS_13basic_ostreamIcT_EES6_PKc, symObjAddr: 0x3B70, symBinAddr: 0x1000058C0, symSize: 0x40 }
  - { offsetInCU: 0xC2C2, offset: 0xC2C2, size: 0x8, addend: 0x0, symName: __ZNSt3__14endlB7v160006IcNS_11char_traitsIcEEEERNS_13basic_ostreamIT_T0_EES7_, symObjAddr: 0x3BD0, symBinAddr: 0x100005920, symSize: 0x50 }
  - { offsetInCU: 0xC454, offset: 0xC454, size: 0x8, addend: 0x0, symName: __ZNSt3__119__libcpp_deallocateB7v160006EPvmm, symObjAddr: 0x3F20, symBinAddr: 0x100005C70, symSize: 0x30 }
  - { offsetInCU: 0xC49C, offset: 0xC49C, size: 0x8, addend: 0x0, symName: __ZNSt3__127__do_deallocate_handle_sizeB7v160006IJEEEvPvmDpT_, symObjAddr: 0x3F50, symBinAddr: 0x100005CA0, symSize: 0x20 }
  - { offsetInCU: 0xC4DA, offset: 0xC4DA, size: 0x8, addend: 0x0, symName: __ZNSt3__124__libcpp_operator_deleteB7v160006IJPvEEEvDpT_, symObjAddr: 0x3F70, symBinAddr: 0x100005CC0, symSize: 0x20 }
  - { offsetInCU: 0xC50F, offset: 0xC50F, size: 0x8, addend: 0x0, symName: __ZNSt3__13maxB7v160006IfNS_6__lessIffEEEERKT_S5_S5_T0_, symObjAddr: 0x3F90, symBinAddr: 0x100005CE0, symSize: 0x50 }
  - { offsetInCU: 0xC5C0, offset: 0xC5C0, size: 0x8, addend: 0x0, symName: __ZNSt3__119__debug_db_insert_cB7v160006INS_12basic_stringIcNS_11char_traitsIcEENS_9allocatorIcEEEEEEvPT_, symObjAddr: 0x43B0, symBinAddr: 0x100006100, symSize: 0x10 }
  - { offsetInCU: 0xC7C3, offset: 0xC7C3, size: 0x8, addend: 0x0, symName: __ZNSt3__117__libcpp_allocateB7v160006Emm, symObjAddr: 0x47D0, symBinAddr: 0x100006520, symSize: 0x20 }
  - { offsetInCU: 0xC800, offset: 0xC800, size: 0x8, addend: 0x0, symName: __ZNSt3__121__libcpp_operator_newB7v160006IJmEEEPvDpT_, symObjAddr: 0x4810, symBinAddr: 0x100006560, symSize: 0x20 }
  - { offsetInCU: 0xCA0B, offset: 0xCA0B, size: 0x8, addend: 0x0, symName: __ZNSt3__118uninitialized_copyB7v160006IPKfPfEET0_T_S5_S4_, symObjAddr: 0x5660, symBinAddr: 0x1000073B0, symSize: 0x40 }
  - { offsetInCU: 0xCA73, offset: 0xCA73, size: 0x8, addend: 0x0, symName: __ZNSt3__14copyB7v160006IPKfPfEET0_T_S5_S4_, symObjAddr: 0x56A0, symBinAddr: 0x1000073F0, symSize: 0x40 }
  - { offsetInCU: 0xCAF2, offset: 0xCAF2, size: 0x8, addend: 0x0, symName: __ZNSt3__120__uninitialized_copyB7v160006IfPKfS2_PfNS_22__unreachable_sentinelEEENS_4pairIT0_T2_EES6_T1_S7_T3_, symObjAddr: 0x56E0, symBinAddr: 0x100007430, symSize: 0xB0 }
  - { offsetInCU: 0xCBA0, offset: 0xCBA0, size: 0x8, addend: 0x0, symName: __ZNSt3__1neB7v160006IPfEEbRKT_NS_22__unreachable_sentinelE, symObjAddr: 0x5790, symBinAddr: 0x1000074E0, symSize: 0x20 }
  - { offsetInCU: 0xCBDB, offset: 0xCBDB, size: 0x8, addend: 0x0, symName: __ZNSt3__19__destroyB7v160006IPfEET_S2_S2_, symObjAddr: 0x57B0, symBinAddr: 0x100007500, symSize: 0x50 }
  - { offsetInCU: 0xCD21, offset: 0xCD21, size: 0x8, addend: 0x0, symName: __ZNSt3__112__destroy_atB7v160006IfLi0EEEvPT_, symObjAddr: 0x5830, symBinAddr: 0x100007580, symSize: 0x10 }
  - { offsetInCU: 0xCD58, offset: 0xCD58, size: 0x8, addend: 0x0, symName: __ZNSt3__16__copyB7v160006INS_17_ClassicAlgPolicyEPKfS3_PfEENS_4pairIT0_T2_EES6_T1_S7_, symObjAddr: 0x5870, symBinAddr: 0x1000075C0, symSize: 0x40 }
  - { offsetInCU: 0xCDC4, offset: 0xCDC4, size: 0x8, addend: 0x0, symName: __ZNSt3__123__dispatch_copy_or_moveB7v160006INS_17_ClassicAlgPolicyENS_11__copy_loopIS1_EENS_14__copy_trivialEPKfS6_PfEENS_4pairIT2_T4_EES9_T3_SA_, symObjAddr: 0x58B0, symBinAddr: 0x100007600, symSize: 0x40 }
  - { offsetInCU: 0xCE42, offset: 0xCE42, size: 0x8, addend: 0x0, symName: __ZNSt3__121__unwrap_and_dispatchB7v160006INS_10__overloadINS_11__copy_loopINS_17_ClassicAlgPolicyEEENS_14__copy_trivialEEEPKfS8_PfLi0EEENS_4pairIT0_T2_EESB_T1_SC_, symObjAddr: 0x58F0, symBinAddr: 0x100007640, symSize: 0xB0 }
  - { offsetInCU: 0xCED1, offset: 0xCED1, size: 0x8, addend: 0x0, symName: __ZNSt3__114__unwrap_rangeB7v160006IPKfS2_EENS_4pairIT0_S4_EET_S6_, symObjAddr: 0x59A0, symBinAddr: 0x1000076F0, symSize: 0x50 }
  - { offsetInCU: 0xCF63, offset: 0xCF63, size: 0x8, addend: 0x0, symName: __ZNSt3__113__unwrap_iterB7v160006IPfNS_18__unwrap_iter_implIS1_Lb1EEELi0EEEDTclsrT0_8__unwrapclsr3stdE7declvalIT_EEEES5_, symObjAddr: 0x5A30, symBinAddr: 0x100007780, symSize: 0x20 }
  - { offsetInCU: 0xCFA7, offset: 0xCFA7, size: 0x8, addend: 0x0, symName: __ZNSt3__19make_pairB7v160006IPKfPfEENS_4pairINS_18__unwrap_ref_decayIT_E4typeENS5_IT0_E4typeEEEOS6_OS9_, symObjAddr: 0x5A50, symBinAddr: 0x1000077A0, symSize: 0x30 }
  - { offsetInCU: 0xCFF6, offset: 0xCFF6, size: 0x8, addend: 0x0, symName: __ZNSt3__114__rewrap_rangeB7v160006IPKfS2_EET_S3_T0_, symObjAddr: 0x5A80, symBinAddr: 0x1000077D0, symSize: 0x30 }
  - { offsetInCU: 0xD042, offset: 0xD042, size: 0x8, addend: 0x0, symName: __ZNSt3__113__rewrap_iterB7v160006IPfS1_NS_18__unwrap_iter_implIS1_Lb1EEEEET_S4_T0_, symObjAddr: 0x5AB0, symBinAddr: 0x100007800, symSize: 0x40 }
  - { offsetInCU: 0xD097, offset: 0xD097, size: 0x8, addend: 0x0, symName: __ZNSt3__19make_pairB7v160006IPKfS2_EENS_4pairINS_18__unwrap_ref_decayIT_E4typeENS4_IT0_E4typeEEEOS5_OS8_, symObjAddr: 0x5AF0, symBinAddr: 0x100007840, symSize: 0x30 }
  - { offsetInCU: 0xD0E6, offset: 0xD0E6, size: 0x8, addend: 0x0, symName: __ZNSt3__113__unwrap_iterB7v160006IPKfNS_18__unwrap_iter_implIS2_Lb1EEELi0EEEDTclsrT0_8__unwrapclsr3stdE7declvalIT_EEEES6_, symObjAddr: 0x5B20, symBinAddr: 0x100007870, symSize: 0x20 }
  - { offsetInCU: 0xD251, offset: 0xD251, size: 0x8, addend: 0x0, symName: __ZNSt3__112__to_addressB7v160006IKfEEPT_S3_, symObjAddr: 0x5BC0, symBinAddr: 0x100007910, symSize: 0x10 }
  - { offsetInCU: 0xD286, offset: 0xD286, size: 0x8, addend: 0x0, symName: __ZNSt3__119__copy_trivial_implB7v160006IKffEENS_4pairIPT_PT0_EES4_S4_S6_, symObjAddr: 0x5BD0, symBinAddr: 0x100007920, symSize: 0x70 }
  - { offsetInCU: 0xD2EE, offset: 0xD2EE, size: 0x8, addend: 0x0, symName: __ZNSt3__19make_pairB7v160006IRPKfPfEENS_4pairINS_18__unwrap_ref_decayIT_E4typeENS6_IT0_E4typeEEEOS7_OSA_, symObjAddr: 0x5C40, symBinAddr: 0x100007990, symSize: 0x30 }
  - { offsetInCU: 0xD390, offset: 0xD390, size: 0x8, addend: 0x0, symName: __ZNSt3__112__to_addressB7v160006IfEEPT_S2_, symObjAddr: 0x5CF0, symBinAddr: 0x100007A40, symSize: 0x10 }
  - { offsetInCU: 0xD3C5, offset: 0xD3C5, size: 0x8, addend: 0x0, symName: __ZNSt3__113__rewrap_iterB7v160006IPKfS2_NS_18__unwrap_iter_implIS2_Lb1EEEEET_S5_T0_, symObjAddr: 0x5D00, symBinAddr: 0x100007A50, symSize: 0x40 }
  - { offsetInCU: 0xD41A, offset: 0xD41A, size: 0x8, addend: 0x0, symName: __ZNSt3__1plB7v160006INS_8valarrayIfEES2_EENS_9enable_ifIXaasr13__is_val_exprIT_EE5valuesr13__is_val_exprIT0_EE5valueENS_10__val_exprINS_9_BinaryOpINS_4plusINS4_10value_typeEEES4_S5_EEEEE4typeERKS4_RKS5_, symObjAddr: 0x6120, symBinAddr: 0x100007E70, symSize: 0x50 }
  - { offsetInCU: 0xD63B, offset: 0xD63B, size: 0x8, addend: 0x0, symName: __ZNSt3__111min_elementB7v160006IPfEET_S2_S2_, symObjAddr: 0x69A0, symBinAddr: 0x1000086F0, symSize: 0x30 }
  - { offsetInCU: 0xD67E, offset: 0xD67E, size: 0x8, addend: 0x0, symName: __ZNSt3__111min_elementB7v160006IPfNS_6__lessIffEEEET_S4_S4_T0_, symObjAddr: 0x69D0, symBinAddr: 0x100008720, symSize: 0x30 }
  - { offsetInCU: 0xD6D8, offset: 0xD6D8, size: 0x8, addend: 0x0, symName: __ZNSt3__113__min_elementB7v160006IRNS_6__lessIffEEPfS4_EET0_S5_T1_T_, symObjAddr: 0x6A00, symBinAddr: 0x100008750, symSize: 0x40 }
  - { offsetInCU: 0xD749, offset: 0xD749, size: 0x8, addend: 0x0, symName: __ZNSt3__113__min_elementB7v160006IRNS_6__lessIffEEPfS4_NS_10__identityEEET0_S6_T1_T_RT2_, symObjAddr: 0x6A40, symBinAddr: 0x100008790, symSize: 0xC0 }
  - { offsetInCU: 0xD7D1, offset: 0xD7D1, size: 0x8, addend: 0x0, symName: __ZNSt3__18__invokeB7v160006IRNS_6__lessIffEEJRfS4_EEEDTclclsr3stdE7declvalIT_EEspclsr3stdE7declvalIT0_EEEEOS5_DpOS6_, symObjAddr: 0x6B00, symBinAddr: 0x100008850, symSize: 0x30 }
  - { offsetInCU: 0xD836, offset: 0xD836, size: 0x8, addend: 0x0, symName: __ZNSt3__18__invokeB7v160006IRNS_10__identityEJRfEEEDTclclsr3stdE7declvalIT_EEspclsr3stdE7declvalIT0_EEEEOS4_DpOS5_, symObjAddr: 0x6B30, symBinAddr: 0x100008880, symSize: 0x30 }
  - { offsetInCU: 0xDA86, offset: 0xDA86, size: 0x8, addend: 0x0, symName: __ZNSt3__15countB7v160006IPbbEENS_15iterator_traitsIT_E15difference_typeES3_S3_RKT0_, symObjAddr: 0x73F0, symBinAddr: 0x100009140, symSize: 0x70 }
  - { offsetInCU: 0xDB9D, offset: 0xDB9D, size: 0x8, addend: 0x0, symName: __ZNSt3__118uninitialized_copyB7v160006IPKNS_8valarrayIfEEPS2_EET0_T_S7_S6_, symObjAddr: 0x7A80, symBinAddr: 0x1000097D0, symSize: 0x40 }
  - { offsetInCU: 0xDC05, offset: 0xDC05, size: 0x8, addend: 0x0, symName: __ZNSt3__14copyB7v160006IPKNS_8valarrayIfEEPS2_EET0_T_S7_S6_, symObjAddr: 0x7AC0, symBinAddr: 0x100009810, symSize: 0x40 }
  - { offsetInCU: 0xDC84, offset: 0xDC84, size: 0x8, addend: 0x0, symName: __ZNSt3__120__uninitialized_copyB7v160006INS_8valarrayIfEEPKS2_S4_PS2_NS_22__unreachable_sentinelEEENS_4pairIT0_T2_EES8_T1_S9_T3_, symObjAddr: 0x7B00, symBinAddr: 0x100009850, symSize: 0x120 }
  - { offsetInCU: 0xDD32, offset: 0xDD32, size: 0x8, addend: 0x0, symName: __ZNSt3__1neB7v160006IPNS_8valarrayIfEEEEbRKT_NS_22__unreachable_sentinelE, symObjAddr: 0x7C20, symBinAddr: 0x100009970, symSize: 0x20 }
  - { offsetInCU: 0xDD6D, offset: 0xDD6D, size: 0x8, addend: 0x0, symName: __ZNSt3__19__destroyB7v160006IPNS_8valarrayIfEEEET_S4_S4_, symObjAddr: 0x7C40, symBinAddr: 0x100009990, symSize: 0x50 }
  - { offsetInCU: 0xDE84, offset: 0xDE84, size: 0x8, addend: 0x0, symName: __ZNSt3__112__destroy_atB7v160006INS_8valarrayIfEELi0EEEvPT_, symObjAddr: 0x7CC0, symBinAddr: 0x100009A10, symSize: 0x20 }
  - { offsetInCU: 0xDEBB, offset: 0xDEBB, size: 0x8, addend: 0x0, symName: __ZNSt3__16__copyB7v160006INS_17_ClassicAlgPolicyEPKNS_8valarrayIfEES5_PS3_EENS_4pairIT0_T2_EES8_T1_S9_, symObjAddr: 0x7D10, symBinAddr: 0x100009A60, symSize: 0x40 }
  - { offsetInCU: 0xDF27, offset: 0xDF27, size: 0x8, addend: 0x0, symName: __ZNSt3__123__dispatch_copy_or_moveB7v160006INS_17_ClassicAlgPolicyENS_11__copy_loopIS1_EENS_14__copy_trivialEPKNS_8valarrayIfEES8_PS6_EENS_4pairIT2_T4_EESB_T3_SC_, symObjAddr: 0x7D50, symBinAddr: 0x100009AA0, symSize: 0x40 }
  - { offsetInCU: 0xDFA5, offset: 0xDFA5, size: 0x8, addend: 0x0, symName: __ZNSt3__121__unwrap_and_dispatchB7v160006INS_10__overloadINS_11__copy_loopINS_17_ClassicAlgPolicyEEENS_14__copy_trivialEEEPKNS_8valarrayIfEESA_PS8_Li0EEENS_4pairIT0_T2_EESD_T1_SE_, symObjAddr: 0x7D90, symBinAddr: 0x100009AE0, symSize: 0xB0 }
  - { offsetInCU: 0xE034, offset: 0xE034, size: 0x8, addend: 0x0, symName: __ZNSt3__114__unwrap_rangeB7v160006IPKNS_8valarrayIfEES4_EENS_4pairIT0_S6_EET_S8_, symObjAddr: 0x7E40, symBinAddr: 0x100009B90, symSize: 0x50 }
  - { offsetInCU: 0xE0DB, offset: 0xE0DB, size: 0x8, addend: 0x0, symName: __ZNSt3__113__unwrap_iterB7v160006IPNS_8valarrayIfEENS_18__unwrap_iter_implIS3_Lb1EEELi0EEEDTclsrT0_8__unwrapclsr3stdE7declvalIT_EEEES7_, symObjAddr: 0x7F10, symBinAddr: 0x100009C60, symSize: 0x20 }
  - { offsetInCU: 0xE11F, offset: 0xE11F, size: 0x8, addend: 0x0, symName: __ZNSt3__19make_pairB7v160006IPKNS_8valarrayIfEEPS2_EENS_4pairINS_18__unwrap_ref_decayIT_E4typeENS7_IT0_E4typeEEEOS8_OSB_, symObjAddr: 0x7F30, symBinAddr: 0x100009C80, symSize: 0x30 }
  - { offsetInCU: 0xE16E, offset: 0xE16E, size: 0x8, addend: 0x0, symName: __ZNSt3__114__rewrap_rangeB7v160006IPKNS_8valarrayIfEES4_EET_S5_T0_, symObjAddr: 0x7F60, symBinAddr: 0x100009CB0, symSize: 0x30 }
  - { offsetInCU: 0xE1BA, offset: 0xE1BA, size: 0x8, addend: 0x0, symName: __ZNSt3__113__rewrap_iterB7v160006IPNS_8valarrayIfEES3_NS_18__unwrap_iter_implIS3_Lb1EEEEET_S6_T0_, symObjAddr: 0x7F90, symBinAddr: 0x100009CE0, symSize: 0x40 }
  - { offsetInCU: 0xE20F, offset: 0xE20F, size: 0x8, addend: 0x0, symName: __ZNSt3__19make_pairB7v160006IPKNS_8valarrayIfEES4_EENS_4pairINS_18__unwrap_ref_decayIT_E4typeENS6_IT0_E4typeEEEOS7_OSA_, symObjAddr: 0x7FD0, symBinAddr: 0x100009D20, symSize: 0x30 }
  - { offsetInCU: 0xE25E, offset: 0xE25E, size: 0x8, addend: 0x0, symName: __ZNSt3__113__unwrap_iterB7v160006IPKNS_8valarrayIfEENS_18__unwrap_iter_implIS4_Lb1EEELi0EEEDTclsrT0_8__unwrapclsr3stdE7declvalIT_EEEES8_, symObjAddr: 0x8000, symBinAddr: 0x100009D50, symSize: 0x20 }
  - { offsetInCU: 0xE3C9, offset: 0xE3C9, size: 0x8, addend: 0x0, symName: __ZNSt3__112__to_addressB7v160006IKNS_8valarrayIfEEEEPT_S5_, symObjAddr: 0x80A0, symBinAddr: 0x100009DF0, symSize: 0x10 }
  - { offsetInCU: 0xE451, offset: 0xE451, size: 0x8, addend: 0x0, symName: __ZNSt3__112__to_addressB7v160006INS_8valarrayIfEEEEPT_S4_, symObjAddr: 0x80D0, symBinAddr: 0x100009E20, symSize: 0x10 }
  - { offsetInCU: 0xE486, offset: 0xE486, size: 0x8, addend: 0x0, symName: __ZNSt3__113__rewrap_iterB7v160006IPKNS_8valarrayIfEES4_NS_18__unwrap_iter_implIS4_Lb1EEEEET_S7_T0_, symObjAddr: 0x80E0, symBinAddr: 0x100009E30, symSize: 0x40 }
  - { offsetInCU: 0xE4DB, offset: 0xE4DB, size: 0x8, addend: 0x0, symName: __ZNSt3__118__constexpr_strlenB7v160006EPKc, symObjAddr: 0x8690, symBinAddr: 0x10000A3E0, symSize: 0x20 }
  - { offsetInCU: 0xE507, offset: 0xE507, size: 0x8, addend: 0x0, symName: __ZNSt3__19use_facetB7v160006INS_5ctypeIcEEEERKT_RKNS_6localeE, symObjAddr: 0x8730, symBinAddr: 0x10000A480, symSize: 0x30 }
  - { offsetInCU: 0xE9D6, offset: 0xE9D6, size: 0x8, addend: 0x0, symName: __ZNSt3__125__debug_db_invalidate_allB7v160006INS_12basic_stringIcNS_11char_traitsIcEENS_9allocatorIcEEEEEEvPT_, symObjAddr: 0x8E10, symBinAddr: 0x10000AB60, symSize: 0x10 }
  - { offsetInCU: 0xEC3C, offset: 0xEC3C, size: 0x8, addend: 0x0, symName: __ZNSt3__116__pad_and_outputB7v160006IcNS_11char_traitsIcEEEENS_19ostreambuf_iteratorIT_T0_EES6_PKS4_S8_S8_RNS_8ios_baseES4_, symObjAddr: 0x92C0, symBinAddr: 0x10000B010, symSize: 0x220 }
  - { offsetInCU: 0xED0C, offset: 0xED0C, size: 0x8, addend: 0x0, symName: __ZNSt3__112__to_addressB7v160006IKcEEPT_S3_, symObjAddr: 0x96F0, symBinAddr: 0x10000B440, symSize: 0x10 }
  - { offsetInCU: 0xF2F8, offset: 0xF2F8, size: 0x8, addend: 0x0, symName: __ZSt28__throw_bad_array_new_lengthB7v160006v, symObjAddr: 0x4790, symBinAddr: 0x1000064E0, symSize: 0x40 }
  - { offsetInCU: 0xF97C, offset: 0xF97C, size: 0x8, addend: 0x0, symName: __ZNKSt3__16chrono15__duration_castINS0_8durationIxNS_5ratioILl1ELl1000000000EEEEENS2_IxNS3_ILl1ELl1000000EEEEENS3_ILl1ELl1000EEELb1ELb0EEclB7v160006ERKS5_, symObjAddr: 0x4110, symBinAddr: 0x100005E60, symSize: 0x50 }
  - { offsetInCU: 0x12327, offset: 0x12327, size: 0x8, addend: 0x0, symName: __Z9incrementRKNSt3__18valarrayIfEE, symObjAddr: 0x0, symBinAddr: 0x100001D50, symSize: 0x50 }
  - { offsetInCU: 0x12354, offset: 0x12354, size: 0x8, addend: 0x0, symName: __ZNKSt3__110__val_exprINS_9_BinaryOpINS_10multipliesIfEENS_8valarrayIfEENS_13__scalar_exprIfEEEEEcvS5_Ev, symObjAddr: 0xC0, symBinAddr: 0x100001E10, symSize: 0x140 }
  - { offsetInCU: 0x123B8, offset: 0x123B8, size: 0x8, addend: 0x0, symName: __Z7prodMatRNSt3__18valarrayINS0_IfEEEES3_i, symObjAddr: 0x200, symBinAddr: 0x100001F50, symSize: 0x1F0 }
  - { offsetInCU: 0x12466, offset: 0x12466, size: 0x8, addend: 0x0, symName: __ZNKSt3__18valarrayINS0_IfEEE4sizeB7v160006Ev, symObjAddr: 0x3F0, symBinAddr: 0x100002140, symSize: 0x20 }
  - { offsetInCU: 0x1248C, offset: 0x1248C, size: 0x8, addend: 0x0, symName: __ZNSt3__18valarrayINS0_IfEEEC1Em, symObjAddr: 0x410, symBinAddr: 0x100002160, symSize: 0x30 }
  - { offsetInCU: 0x124C7, offset: 0x124C7, size: 0x8, addend: 0x0, symName: __ZNSt3__18valarrayIfEC1Em, symObjAddr: 0x440, symBinAddr: 0x100002190, symSize: 0x30 }
  - { offsetInCU: 0x12502, offset: 0x12502, size: 0x8, addend: 0x0, symName: __ZNSt3__18valarrayINS0_IfEEEixB7v160006Em, symObjAddr: 0x470, symBinAddr: 0x1000021C0, symSize: 0x20 }
  - { offsetInCU: 0x12537, offset: 0x12537, size: 0x8, addend: 0x0, symName: __ZNSt3__18valarrayIfEaSEOS1_, symObjAddr: 0x490, symBinAddr: 0x1000021E0, symSize: 0x80 }
  - { offsetInCU: 0x1256E, offset: 0x1256E, size: 0x8, addend: 0x0, symName: __ZNSt3__18valarrayIfED1Ev, symObjAddr: 0x510, symBinAddr: 0x100002260, symSize: 0x20 }
  - { offsetInCU: 0x1259A, offset: 0x1259A, size: 0x8, addend: 0x0, symName: __ZNKSt3__110__val_exprINS_9_BinaryOpINS_10multipliesIfEENS_8valarrayIfEES5_EEE3sumB7v160006Ev, symObjAddr: 0x580, symBinAddr: 0x1000022D0, symSize: 0xA0 }
  - { offsetInCU: 0x125FC, offset: 0x125FC, size: 0x8, addend: 0x0, symName: __ZNSt3__18valarrayIfEixB7v160006Em, symObjAddr: 0x620, symBinAddr: 0x100002370, symSize: 0x20 }
  - { offsetInCU: 0x12631, offset: 0x12631, size: 0x8, addend: 0x0, symName: __ZNSt3__18valarrayINS0_IfEEEC1EOS2_, symObjAddr: 0x640, symBinAddr: 0x100002390, symSize: 0x30 }
  - { offsetInCU: 0x1266C, offset: 0x1266C, size: 0x8, addend: 0x0, symName: __ZNSt3__18valarrayINS0_IfEEED1Ev, symObjAddr: 0x670, symBinAddr: 0x1000023C0, symSize: 0x20 }
  - { offsetInCU: 0x12697, offset: 0x12697, size: 0x8, addend: 0x0, symName: __Z7distMatRNSt3__18valarrayINS0_IfEEEES3_i, symObjAddr: 0x690, symBinAddr: 0x1000023E0, symSize: 0x510 }
  - { offsetInCU: 0x12797, offset: 0x12797, size: 0x8, addend: 0x0, symName: __ZNKSt3__110__val_exprINS_9_BinaryOpINS_10multipliesINS_8valarrayIfEEEENS3_IS4_EES6_EEEcvS6_Ev, symObjAddr: 0xBF0, symBinAddr: 0x100002940, symSize: 0x130 }
  - { offsetInCU: 0x127FC, offset: 0x127FC, size: 0x8, addend: 0x0, symName: __ZNKSt3__18valarrayIfE3sumEv, symObjAddr: 0xD20, symBinAddr: 0x100002A70, symSize: 0xA0 }
  - { offsetInCU: 0x12842, offset: 0x12842, size: 0x8, addend: 0x0, symName: __ZNKSt3__18valarrayIfE4sizeB7v160006Ev, symObjAddr: 0xDC0, symBinAddr: 0x100002B10, symSize: 0x20 }
  - { offsetInCU: 0x12868, offset: 0x12868, size: 0x8, addend: 0x0, symName: __ZNSt3__18valarrayIfEC1ERKfm, symObjAddr: 0xDE0, symBinAddr: 0x100002B30, symSize: 0x30 }
  - { offsetInCU: 0x128B7, offset: 0x128B7, size: 0x8, addend: 0x0, symName: __ZNSt3__18valarrayINS0_IfEEEaSINS_9_BinaryOpINS_10multipliesIS1_EES2_S2_EEEERS2_RKNS_10__val_exprIT_EE, symObjAddr: 0xE10, symBinAddr: 0x100002B60, symSize: 0x110 }
  - { offsetInCU: 0x12934, offset: 0x12934, size: 0x8, addend: 0x0, symName: __ZNSt3__18valarrayIfEaSERKS1_, symObjAddr: 0xF20, symBinAddr: 0x100002C70, symSize: 0x60 }
  - { offsetInCU: 0x1296B, offset: 0x1296B, size: 0x8, addend: 0x0, symName: __ZNKSt3__18valarrayINS0_IfEEE5applyEPFS1_RKS1_E, symObjAddr: 0xF80, symBinAddr: 0x100002CD0, symSize: 0x130 }
  - { offsetInCU: 0x129E0, offset: 0x129E0, size: 0x8, addend: 0x0, symName: __ZNSt3__18valarrayINS0_IfEEEaSEOS2_, symObjAddr: 0x10B0, symBinAddr: 0x100002E00, symSize: 0x60 }
  - { offsetInCU: 0x12A17, offset: 0x12A17, size: 0x8, addend: 0x0, symName: __ZNKSt3__110__val_exprINS_9_BinaryOpINS_4plusINS_8valarrayIfEEEENS0_INS1_IS5_NS3_IS4_EES6_EEEES6_EEEcvS6_Ev, symObjAddr: 0x11B0, symBinAddr: 0x100002F00, symSize: 0x130 }
  - { offsetInCU: 0x12A7B, offset: 0x12A7B, size: 0x8, addend: 0x0, symName: __Z11findCentersRNSt3__18valarrayINS0_IfEEEES3_i, symObjAddr: 0x12E0, symBinAddr: 0x100003030, symSize: 0x2A0 }
  - { offsetInCU: 0x12B1F, offset: 0x12B1F, size: 0x8, addend: 0x0, symName: __ZNSt3__18valarrayIiEC1Em, symObjAddr: 0x1580, symBinAddr: 0x1000032D0, symSize: 0x30 }
  - { offsetInCU: 0x12B5A, offset: 0x12B5A, size: 0x8, addend: 0x0, symName: __ZNSt3__18valarrayIiEixB7v160006Em, symObjAddr: 0x15B0, symBinAddr: 0x100003300, symSize: 0x20 }
  - { offsetInCU: 0x12B8F, offset: 0x12B8F, size: 0x8, addend: 0x0, symName: __ZNSt3__18valarrayIiEC1EOS1_, symObjAddr: 0x15D0, symBinAddr: 0x100003320, symSize: 0x30 }
  - { offsetInCU: 0x12BCA, offset: 0x12BCA, size: 0x8, addend: 0x0, symName: __ZNSt3__18valarrayIiED1Ev, symObjAddr: 0x1600, symBinAddr: 0x100003350, symSize: 0x20 }
  - { offsetInCU: 0x12BF5, offset: 0x12BF5, size: 0x8, addend: 0x0, symName: __Z17probability_indexRNSt3__18valarrayIfEE, symObjAddr: 0x1620, symBinAddr: 0x100003370, symSize: 0xB0 }
  - { offsetInCU: 0x12C5A, offset: 0x12C5A, size: 0x8, addend: 0x0, symName: __Z11initCentersRNSt3__18valarrayINS0_IfEEEEi, symObjAddr: 0x16D0, symBinAddr: 0x100003420, symSize: 0x360 }
  - { offsetInCU: 0x12D14, offset: 0x12D14, size: 0x8, addend: 0x0, symName: __ZNSt3__18valarrayIfEixENS_5sliceE, symObjAddr: 0x1A30, symBinAddr: 0x100003780, symSize: 0x30 }
  - { offsetInCU: 0x12D4B, offset: 0x12D4B, size: 0x8, addend: 0x0, symName: __ZNSt3__15sliceC1B7v160006Emmm, symObjAddr: 0x1A60, symBinAddr: 0x1000037B0, symSize: 0x40 }
  - { offsetInCU: 0x12DA2, offset: 0x12DA2, size: 0x8, addend: 0x0, symName: __ZNSt3__18valarrayIfEC1ERKNS_11slice_arrayIfEE, symObjAddr: 0x1AA0, symBinAddr: 0x1000037F0, symSize: 0x30 }
  - { offsetInCU: 0x12DDD, offset: 0x12DDD, size: 0x8, addend: 0x0, symName: __ZNKSt3__18valarrayIfE3minEv, symObjAddr: 0x1AD0, symBinAddr: 0x100003820, symSize: 0x60 }
  - { offsetInCU: 0x12E04, offset: 0x12E04, size: 0x8, addend: 0x0, symName: __Z8kmeansPPRNSt3__18valarrayINS0_IfEEEEi, symObjAddr: 0x1B30, symBinAddr: 0x100003880, symSize: 0x450 }
  - { offsetInCU: 0x12ECF, offset: 0x12ECF, size: 0x8, addend: 0x0, symName: __ZNSt3__18valarrayIiEC1ERKim, symObjAddr: 0x1F80, symBinAddr: 0x100003CD0, symSize: 0x30 }
  - { offsetInCU: 0x12F19, offset: 0x12F19, size: 0x8, addend: 0x0, symName: __ZNKSt3__110__val_exprINS_9_BinaryOpINS_12not_equal_toIiEENS_8valarrayIiEES5_EEE3sumB7v160006Ev, symObjAddr: 0x2000, symBinAddr: 0x100003D50, symSize: 0xB0 }
  - { offsetInCU: 0x12F7B, offset: 0x12F7B, size: 0x8, addend: 0x0, symName: __ZNSt3__18valarrayIiEaSEOS1_, symObjAddr: 0x20B0, symBinAddr: 0x100003E00, symSize: 0x60 }
  - { offsetInCU: 0x12FB2, offset: 0x12FB2, size: 0x8, addend: 0x0, symName: __ZNSt3__18valarrayINS0_IfEEEixEONS0_IbEE, symObjAddr: 0x2110, symBinAddr: 0x100003E60, symSize: 0x40 }
  - { offsetInCU: 0x12FE9, offset: 0x12FE9, size: 0x8, addend: 0x0, symName: __ZNKSt3__110__val_exprINS_9_BinaryOpINS_8equal_toIiEENS_8valarrayIiEENS_13__scalar_exprIiEEEEEcvNS4_IbEEEv, symObjAddr: 0x21C0, symBinAddr: 0x100003F10, symSize: 0x140 }
  - { offsetInCU: 0x1304E, offset: 0x1304E, size: 0x8, addend: 0x0, symName: __ZNSt3__18valarrayINS0_IfEEEC1ERKNS_10mask_arrayIS1_EE, symObjAddr: 0x2300, symBinAddr: 0x100004050, symSize: 0x30 }
  - { offsetInCU: 0x13089, offset: 0x13089, size: 0x8, addend: 0x0, symName: __ZNSt3__110mask_arrayINS_8valarrayIfEEED1Ev, symObjAddr: 0x2330, symBinAddr: 0x100004080, symSize: 0x20 }
  - { offsetInCU: 0x130B6, offset: 0x130B6, size: 0x8, addend: 0x0, symName: __ZNSt3__18valarrayIbED1B7v160006Ev, symObjAddr: 0x2350, symBinAddr: 0x1000040A0, symSize: 0x20 }
  - { offsetInCU: 0x130E2, offset: 0x130E2, size: 0x8, addend: 0x0, symName: __ZNKSt3__18valarrayINS0_IfEEE3sumEv, symObjAddr: 0x23E0, symBinAddr: 0x100004130, symSize: 0xF0 }
  - { offsetInCU: 0x1312E, offset: 0x1312E, size: 0x8, addend: 0x0, symName: __ZNSt3__18valarrayIfEaSINS_9_BinaryOpINS_7dividesIfEES1_NS_13__scalar_exprIfEEEEEERS1_RKNS_10__val_exprIT_EE, symObjAddr: 0x24D0, symBinAddr: 0x100004220, symSize: 0xB0 }
  - { offsetInCU: 0x131AA, offset: 0x131AA, size: 0x8, addend: 0x0, symName: __ZNSt3__18valarrayINS0_IfEEEaSERKS2_, symObjAddr: 0x2580, symBinAddr: 0x1000042D0, symSize: 0x60 }
  - { offsetInCU: 0x131E0, offset: 0x131E0, size: 0x8, addend: 0x0, symName: __Z10silhouetteRNSt3__18valarrayINS0_IfEEEERNS0_IiEEi, symObjAddr: 0x25E0, symBinAddr: 0x100004330, symSize: 0x7B0 }
  - { offsetInCU: 0x1333B, offset: 0x1333B, size: 0x8, addend: 0x0, symName: __ZNKSt3__110__val_exprINS_9_BinaryOpINS_7dividesIfEENS0_INS1_INS_5minusIfEENS_8valarrayIfEES7_EEEES7_EEE3sumB7v160006Ev, symObjAddr: 0x2E60, symBinAddr: 0x100004BB0, symSize: 0xA0 }
  - { offsetInCU: 0x1339D, offset: 0x1339D, size: 0x8, addend: 0x0, symName: _main, symObjAddr: 0x2F00, symBinAddr: 0x100004C50, symSize: 0x760 }
  - { offsetInCU: 0x135C2, offset: 0x135C2, size: 0x8, addend: 0x0, symName: __ZNSt3__114basic_ifstreamIcNS_11char_traitsIcEEEC1Ev, symObjAddr: 0x3660, symBinAddr: 0x1000053B0, symSize: 0xE0 }
  - { offsetInCU: 0x135F3, offset: 0x135F3, size: 0x8, addend: 0x0, symName: __ZNSt3__112basic_stringIcNS_11char_traitsIcEENS_9allocatorIcEEEC1B7v160006IDnEEPKc, symObjAddr: 0x3740, symBinAddr: 0x100005490, symSize: 0x30 }
  - { offsetInCU: 0x13631, offset: 0x13631, size: 0x8, addend: 0x0, symName: __ZNKSt3__19basic_iosIcNS_11char_traitsIcEEEcvbB7v160006Ev, symObjAddr: 0x37C0, symBinAddr: 0x100005510, symSize: 0x30 }
  - { offsetInCU: 0x136B9, offset: 0x136B9, size: 0x8, addend: 0x0, symName: __ZNSt3__118basic_stringstreamIcNS_11char_traitsIcEENS_9allocatorIcEEEC1B7v160006ERKNS_12basic_stringIcS2_S4_EEj, symObjAddr: 0x37F0, symBinAddr: 0x100005540, symSize: 0x100 }
  - { offsetInCU: 0x13701, offset: 0x13701, size: 0x8, addend: 0x0, symName: __ZNSt3__112basic_stringIcNS_11char_traitsIcEENS_9allocatorIcEEEC1B7v160006Ev, symObjAddr: 0x38F0, symBinAddr: 0x100005640, symSize: 0x20 }
  - { offsetInCU: 0x13730, offset: 0x13730, size: 0x8, addend: 0x0, symName: __ZNSt3__118basic_stringstreamIcNS_11char_traitsIcEENS_9allocatorIcEEED1Ev, symObjAddr: 0x3B30, symBinAddr: 0x100005880, symSize: 0x40 }
  - { offsetInCU: 0x1375D, offset: 0x1375D, size: 0x8, addend: 0x0, symName: __ZNSt3__113basic_ostreamIcNS_11char_traitsIcEEElsB7v160006EPFRS3_S4_E, symObjAddr: 0x3BB0, symBinAddr: 0x100005900, symSize: 0x20 }
  - { offsetInCU: 0x13791, offset: 0x13791, size: 0x8, addend: 0x0, symName: __ZNKSt3__16chrono8durationIxNS_5ratioILl1ELl1000000EEEE5countB7v160006Ev, symObjAddr: 0x3CA0, symBinAddr: 0x1000059F0, symSize: 0x20 }
  - { offsetInCU: 0x137BC, offset: 0x137BC, size: 0x8, addend: 0x0, symName: __ZNSt3__114basic_ifstreamIcNS_11char_traitsIcEEED1Ev, symObjAddr: 0x3CC0, symBinAddr: 0x100005A10, symSize: 0x40 }
  - { offsetInCU: 0x137E9, offset: 0x137E9, size: 0x8, addend: 0x0, symName: __ZNSt3__15sliceC2B7v160006Emmm, symObjAddr: 0x3D00, symBinAddr: 0x100005A50, symSize: 0x40 }
  - { offsetInCU: 0x13840, offset: 0x13840, size: 0x8, addend: 0x0, symName: __ZNSt3__110mask_arrayINS_8valarrayIfEEED2Ev, symObjAddr: 0x3D40, symBinAddr: 0x100005A90, symSize: 0x20 }
  - { offsetInCU: 0x1386D, offset: 0x1386D, size: 0x8, addend: 0x0, symName: __ZNSt3__18valarrayImED1B7v160006Ev, symObjAddr: 0x3D60, symBinAddr: 0x100005AB0, symSize: 0x20 }
  - { offsetInCU: 0x13899, offset: 0x13899, size: 0x8, addend: 0x0, symName: __ZNSt3__18valarrayImED2B7v160006Ev, symObjAddr: 0x3D80, symBinAddr: 0x100005AD0, symSize: 0x50 }
  - { offsetInCU: 0x138C5, offset: 0x138C5, size: 0x8, addend: 0x0, symName: __ZNSt3__18valarrayImE7__clearB7v160006Em, symObjAddr: 0x3DD0, symBinAddr: 0x100005B20, symSize: 0x90 }
  - { offsetInCU: 0x138FC, offset: 0x138FC, size: 0x8, addend: 0x0, symName: __ZNKSt3__18valarrayImE4sizeB7v160006Ev, symObjAddr: 0x3E60, symBinAddr: 0x100005BB0, symSize: 0x20 }
  - { offsetInCU: 0x1393B, offset: 0x1393B, size: 0x8, addend: 0x0, symName: __ZNSt3__19allocatorImEC1B7v160006Ev, symObjAddr: 0x3E90, symBinAddr: 0x100005BE0, symSize: 0x20 }
  - { offsetInCU: 0x13965, offset: 0x13965, size: 0x8, addend: 0x0, symName: __ZNSt3__19allocatorImE10deallocateB7v160006EPmm, symObjAddr: 0x3EB0, symBinAddr: 0x100005C00, symSize: 0x40 }
  - { offsetInCU: 0x139A7, offset: 0x139A7, size: 0x8, addend: 0x0, symName: __ZNSt3__19allocatorImEC2B7v160006Ev, symObjAddr: 0x3EF0, symBinAddr: 0x100005C40, symSize: 0x20 }
  - { offsetInCU: 0x139D1, offset: 0x139D1, size: 0x8, addend: 0x0, symName: __ZNSt3__116__non_trivial_ifILb1ENS_9allocatorImEEEC2B7v160006Ev, symObjAddr: 0x3F10, symBinAddr: 0x100005C60, symSize: 0x10 }
  - { offsetInCU: 0x13A05, offset: 0x13A05, size: 0x8, addend: 0x0, symName: __ZNKSt3__16__lessIffEclB7v160006ERKfS3_, symObjAddr: 0x3FE0, symBinAddr: 0x100005D30, symSize: 0x30 }
  - { offsetInCU: 0x13A47, offset: 0x13A47, size: 0x8, addend: 0x0, symName: __ZNSt3__118basic_stringstreamIcNS_11char_traitsIcEENS_9allocatorIcEEED2Ev, symObjAddr: 0x4010, symBinAddr: 0x100005D60, symSize: 0x60 }
  - { offsetInCU: 0x13A81, offset: 0x13A81, size: 0x8, addend: 0x0, symName: __ZThn16_NSt3__118basic_stringstreamIcNS_11char_traitsIcEENS_9allocatorIcEEED1Ev, symObjAddr: 0x4070, symBinAddr: 0x100005DC0, symSize: 0x20 }
  - { offsetInCU: 0x13A98, offset: 0x13A98, size: 0x8, addend: 0x0, symName: __ZTv0_n24_NSt3__118basic_stringstreamIcNS_11char_traitsIcEENS_9allocatorIcEEED1Ev, symObjAddr: 0x4090, symBinAddr: 0x100005DE0, symSize: 0x20 }
  - { offsetInCU: 0x13AB4, offset: 0x13AB4, size: 0x8, addend: 0x0, symName: __ZNSt3__115basic_stringbufIcNS_11char_traitsIcEENS_9allocatorIcEEED1Ev, symObjAddr: 0x40B0, symBinAddr: 0x100005E00, symSize: 0x20 }
  - { offsetInCU: 0x13AE1, offset: 0x13AE1, size: 0x8, addend: 0x0, symName: __ZNSt3__115basic_stringbufIcNS_11char_traitsIcEENS_9allocatorIcEEED2Ev, symObjAddr: 0x40D0, symBinAddr: 0x100005E20, symSize: 0x40 }
  - { offsetInCU: 0x13B0E, offset: 0x13B0E, size: 0x8, addend: 0x0, symName: __ZNKSt3__16chrono8durationIxNS_5ratioILl1ELl1000000000EEEE5countB7v160006Ev, symObjAddr: 0x4160, symBinAddr: 0x100005EB0, symSize: 0x20 }
  - { offsetInCU: 0x13B43, offset: 0x13B43, size: 0x8, addend: 0x0, symName: __ZNSt3__16chrono8durationIxNS_5ratioILl1ELl1000000EEEEC1B7v160006IxEERKT_PNS_9enable_ifIXaasr14is_convertibleIS8_xEE5valueooL_ZNS_17integral_constantIbLb0EE5valueEEntsr23treat_as_floating_pointIS6_EE5valueEvE4typeE, symObjAddr: 0x4180, symBinAddr: 0x100005ED0, symSize: 0x30 }
  - { offsetInCU: 0x13B90, offset: 0x13B90, size: 0x8, addend: 0x0, symName: __ZNSt3__16chrono8durationIxNS_5ratioILl1ELl1000000EEEEC2B7v160006IxEERKT_PNS_9enable_ifIXaasr14is_convertibleIS8_xEE5valueooL_ZNS_17integral_constantIbLb0EE5valueEEntsr23treat_as_floating_pointIS6_EE5valueEvE4typeE, symObjAddr: 0x41B0, symBinAddr: 0x100005F00, symSize: 0x20 }
  - { offsetInCU: 0x13BFB, offset: 0x13BFB, size: 0x8, addend: 0x0, symName: __ZNKSt3__16chrono10time_pointINS0_12steady_clockENS0_8durationIxNS_5ratioILl1ELl1000000000EEEEEE16time_since_epochB7v160006Ev, symObjAddr: 0x4240, symBinAddr: 0x100005F90, symSize: 0x20 }
  - { offsetInCU: 0x13C21, offset: 0x13C21, size: 0x8, addend: 0x0, symName: __ZNSt3__16chrono8durationIxNS_5ratioILl1ELl1000000000EEEEC1B7v160006IxEERKT_PNS_9enable_ifIXaasr14is_convertibleIS8_xEE5valueooL_ZNS_17integral_constantIbLb0EE5valueEEntsr23treat_as_floating_pointIS6_EE5valueEvE4typeE, symObjAddr: 0x4260, symBinAddr: 0x100005FB0, symSize: 0x30 }
  - { offsetInCU: 0x13C6E, offset: 0x13C6E, size: 0x8, addend: 0x0, symName: __ZNSt3__16chrono8durationIxNS_5ratioILl1ELl1000000000EEEEC2B7v160006IxEERKT_PNS_9enable_ifIXaasr14is_convertibleIS8_xEE5valueooL_ZNS_17integral_constantIbLb0EE5valueEEntsr23treat_as_floating_pointIS6_EE5valueEvE4typeE, symObjAddr: 0x4290, symBinAddr: 0x100005FE0, symSize: 0x20 }
  - { offsetInCU: 0x13CBB, offset: 0x13CBB, size: 0x8, addend: 0x0, symName: __ZNSt3__114basic_ifstreamIcNS_11char_traitsIcEEED2Ev, symObjAddr: 0x42B0, symBinAddr: 0x100006000, symSize: 0x60 }
  - { offsetInCU: 0x13CF5, offset: 0x13CF5, size: 0x8, addend: 0x0, symName: __ZTv0_n24_NSt3__114basic_ifstreamIcNS_11char_traitsIcEEED1Ev, symObjAddr: 0x4310, symBinAddr: 0x100006060, symSize: 0x20 }
  - { offsetInCU: 0x13D0C, offset: 0x13D0C, size: 0x8, addend: 0x0, symName: __ZNSt3__112basic_stringIcNS_11char_traitsIcEENS_9allocatorIcEEEC2B7v160006Ev, symObjAddr: 0x4330, symBinAddr: 0x100006080, symSize: 0x50 }
  - { offsetInCU: 0x13D3C, offset: 0x13D3C, size: 0x8, addend: 0x0, symName: __ZNSt3__117__compressed_pairINS_12basic_stringIcNS_11char_traitsIcEENS_9allocatorIcEEE5__repES5_EC1B7v160006INS_18__default_init_tagESA_EEOT_OT0_, symObjAddr: 0x4380, symBinAddr: 0x1000060D0, symSize: 0x30 }
  - { offsetInCU: 0x13D94, offset: 0x13D94, size: 0x8, addend: 0x0, symName: __ZNSt3__112basic_stringIcNS_11char_traitsIcEENS_9allocatorIcEEE14__default_initB7v160006Ev, symObjAddr: 0x43C0, symBinAddr: 0x100006110, symSize: 0x50 }
  - { offsetInCU: 0x13DBA, offset: 0x13DBA, size: 0x8, addend: 0x0, symName: __ZNSt3__117__compressed_pairINS_12basic_stringIcNS_11char_traitsIcEENS_9allocatorIcEEE5__repES5_EC2B7v160006INS_18__default_init_tagESA_EEOT_OT0_, symObjAddr: 0x4410, symBinAddr: 0x100006160, symSize: 0x30 }
  - { offsetInCU: 0x13E12, offset: 0x13E12, size: 0x8, addend: 0x0, symName: __ZNSt3__122__compressed_pair_elemINS_12basic_stringIcNS_11char_traitsIcEENS_9allocatorIcEEE5__repELi0ELb0EEC2B7v160006ENS_18__default_init_tagE, symObjAddr: 0x4440, symBinAddr: 0x100006190, symSize: 0x10 }
  - { offsetInCU: 0x13E46, offset: 0x13E46, size: 0x8, addend: 0x0, symName: __ZNSt3__122__compressed_pair_elemINS_9allocatorIcEELi1ELb1EEC2B7v160006ENS_18__default_init_tagE, symObjAddr: 0x4450, symBinAddr: 0x1000061A0, symSize: 0x20 }
  - { offsetInCU: 0x13E7A, offset: 0x13E7A, size: 0x8, addend: 0x0, symName: __ZNSt3__19allocatorIcEC2B7v160006Ev, symObjAddr: 0x4470, symBinAddr: 0x1000061C0, symSize: 0x20 }
  - { offsetInCU: 0x13EA4, offset: 0x13EA4, size: 0x8, addend: 0x0, symName: __ZNSt3__116__non_trivial_ifILb1ENS_9allocatorIcEEEC2B7v160006Ev, symObjAddr: 0x4490, symBinAddr: 0x1000061E0, symSize: 0x10 }
  - { offsetInCU: 0x13ECE, offset: 0x13ECE, size: 0x8, addend: 0x0, symName: __ZNSt3__117__compressed_pairINS_12basic_stringIcNS_11char_traitsIcEENS_9allocatorIcEEE5__repES5_E5firstB7v160006Ev, symObjAddr: 0x44A0, symBinAddr: 0x1000061F0, symSize: 0x20 }
  - { offsetInCU: 0x13EF4, offset: 0x13EF4, size: 0x8, addend: 0x0, symName: __ZNSt3__122__compressed_pair_elemINS_12basic_stringIcNS_11char_traitsIcEENS_9allocatorIcEEE5__repELi0ELb0EE5__getB7v160006Ev, symObjAddr: 0x44C0, symBinAddr: 0x100006210, symSize: 0x10 }
  - { offsetInCU: 0x13F1A, offset: 0x13F1A, size: 0x8, addend: 0x0, symName: __ZNSt3__113__scalar_exprIfEC1B7v160006ERKfm, symObjAddr: 0x44D0, symBinAddr: 0x100006220, symSize: 0x30 }
  - { offsetInCU: 0x13F62, offset: 0x13F62, size: 0x8, addend: 0x0, symName: __ZNSt3__19_BinaryOpINS_10multipliesIfEENS_8valarrayIfEENS_13__scalar_exprIfEEEC1B7v160006ERKS2_RKS4_RKS6_, symObjAddr: 0x4500, symBinAddr: 0x100006250, symSize: 0x40 }
  - { offsetInCU: 0x13FB9, offset: 0x13FB9, size: 0x8, addend: 0x0, symName: __ZNSt3__110__val_exprINS_9_BinaryOpINS_10multipliesIfEENS_8valarrayIfEENS_13__scalar_exprIfEEEEEC1B7v160006ERKS8_, symObjAddr: 0x4540, symBinAddr: 0x100006290, symSize: 0x30 }
  - { offsetInCU: 0x13FF2, offset: 0x13FF2, size: 0x8, addend: 0x0, symName: __ZNSt3__113__scalar_exprIfEC2B7v160006ERKfm, symObjAddr: 0x4570, symBinAddr: 0x1000062C0, symSize: 0x30 }
  - { offsetInCU: 0x1403A, offset: 0x1403A, size: 0x8, addend: 0x0, symName: __ZNSt3__19_BinaryOpINS_10multipliesIfEENS_8valarrayIfEENS_13__scalar_exprIfEEEC2B7v160006ERKS2_RKS4_RKS6_, symObjAddr: 0x45A0, symBinAddr: 0x1000062F0, symSize: 0x40 }
  - { offsetInCU: 0x14091, offset: 0x14091, size: 0x8, addend: 0x0, symName: __ZNSt3__110__val_exprINS_9_BinaryOpINS_10multipliesIfEENS_8valarrayIfEENS_13__scalar_exprIfEEEEEC2B7v160006ERKS8_, symObjAddr: 0x45E0, symBinAddr: 0x100006330, symSize: 0x40 }
  - { offsetInCU: 0x140CA, offset: 0x140CA, size: 0x8, addend: 0x0, symName: __ZNSt3__18valarrayIfEC1B7v160006Ev, symObjAddr: 0x4620, symBinAddr: 0x100006370, symSize: 0x20 }
  - { offsetInCU: 0x140F4, offset: 0x140F4, size: 0x8, addend: 0x0, symName: __ZNKSt3__19_BinaryOpINS_10multipliesIfEENS_8valarrayIfEENS_13__scalar_exprIfEEE4sizeB7v160006Ev, symObjAddr: 0x4640, symBinAddr: 0x100006390, symSize: 0x20 }
  - { offsetInCU: 0x1412E, offset: 0x1412E, size: 0x8, addend: 0x0, symName: __ZNSt3__19allocatorIfEC1B7v160006Ev, symObjAddr: 0x4660, symBinAddr: 0x1000063B0, symSize: 0x20 }
  - { offsetInCU: 0x14158, offset: 0x14158, size: 0x8, addend: 0x0, symName: __ZNSt3__19allocatorIfE8allocateB7v160006Em, symObjAddr: 0x4680, symBinAddr: 0x1000063D0, symSize: 0x50 }
  - { offsetInCU: 0x1418C, offset: 0x1418C, size: 0x8, addend: 0x0, symName: __ZNKSt3__19_BinaryOpINS_10multipliesIfEENS_8valarrayIfEENS_13__scalar_exprIfEEEixB7v160006Em, symObjAddr: 0x46D0, symBinAddr: 0x100006420, symSize: 0x50 }
  - { offsetInCU: 0x141C1, offset: 0x141C1, size: 0x8, addend: 0x0, symName: __ZNSt3__18valarrayIfEC2B7v160006Ev, symObjAddr: 0x4720, symBinAddr: 0x100006470, symSize: 0x20 }
  - { offsetInCU: 0x141EB, offset: 0x141EB, size: 0x8, addend: 0x0, symName: __ZNSt3__19allocatorIfEC2B7v160006Ev, symObjAddr: 0x4740, symBinAddr: 0x100006490, symSize: 0x20 }
  - { offsetInCU: 0x14215, offset: 0x14215, size: 0x8, addend: 0x0, symName: __ZNSt3__116__non_trivial_ifILb1ENS_9allocatorIfEEEC2B7v160006Ev, symObjAddr: 0x4760, symBinAddr: 0x1000064B0, symSize: 0x10 }
  - { offsetInCU: 0x1424E, offset: 0x1424E, size: 0x8, addend: 0x0, symName: __ZNSt3__116allocator_traitsINS_9allocatorIfEEE8max_sizeB7v160006IS2_vEEmRKS2_, symObjAddr: 0x4770, symBinAddr: 0x1000064C0, symSize: 0x20 }
  - { offsetInCU: 0x1427C, offset: 0x1427C, size: 0x8, addend: 0x0, symName: __ZNKSt3__19allocatorIfE8max_sizeB7v160006Ev, symObjAddr: 0x47F0, symBinAddr: 0x100006540, symSize: 0x20 }
  - { offsetInCU: 0x142A2, offset: 0x142A2, size: 0x8, addend: 0x0, symName: __ZNKSt3__110multipliesIfEclB7v160006ERKfS3_, symObjAddr: 0x4830, symBinAddr: 0x100006580, symSize: 0x30 }
  - { offsetInCU: 0x142E4, offset: 0x142E4, size: 0x8, addend: 0x0, symName: __ZNKSt3__18valarrayIfEixB7v160006Em, symObjAddr: 0x4860, symBinAddr: 0x1000065B0, symSize: 0x20 }
  - { offsetInCU: 0x14319, offset: 0x14319, size: 0x8, addend: 0x0, symName: __ZNKSt3__113__scalar_exprIfEixB7v160006Em, symObjAddr: 0x4880, symBinAddr: 0x1000065D0, symSize: 0x20 }
  - { offsetInCU: 0x1434B, offset: 0x1434B, size: 0x8, addend: 0x0, symName: __ZNSt3__18valarrayIfED2Ev, symObjAddr: 0x48A0, symBinAddr: 0x1000065F0, symSize: 0x50 }
  - { offsetInCU: 0x14377, offset: 0x14377, size: 0x8, addend: 0x0, symName: __ZNSt3__18valarrayIfE7__clearEm, symObjAddr: 0x48F0, symBinAddr: 0x100006640, symSize: 0x90 }
  - { offsetInCU: 0x143AE, offset: 0x143AE, size: 0x8, addend: 0x0, symName: __ZNSt3__19allocatorIfE10deallocateB7v160006EPfm, symObjAddr: 0x4980, symBinAddr: 0x1000066D0, symSize: 0x40 }
  - { offsetInCU: 0x143F0, offset: 0x143F0, size: 0x8, addend: 0x0, symName: __ZNSt3__18valarrayINS0_IfEEEC2Em, symObjAddr: 0x49C0, symBinAddr: 0x100006710, symSize: 0x110 }
  - { offsetInCU: 0x1445D, offset: 0x1445D, size: 0x8, addend: 0x0, symName: __ZNSt3__19allocatorINS_8valarrayIfEEEC1B7v160006Ev, symObjAddr: 0x4AD0, symBinAddr: 0x100006820, symSize: 0x20 }
  - { offsetInCU: 0x14487, offset: 0x14487, size: 0x8, addend: 0x0, symName: __ZNSt3__19allocatorINS_8valarrayIfEEE8allocateB7v160006Em, symObjAddr: 0x4AF0, symBinAddr: 0x100006840, symSize: 0x50 }
  - { offsetInCU: 0x144BB, offset: 0x144BB, size: 0x8, addend: 0x0, symName: __ZNSt3__18valarrayINS0_IfEEE7__clearEm, symObjAddr: 0x4B40, symBinAddr: 0x100006890, symSize: 0x90 }
  - { offsetInCU: 0x144F2, offset: 0x144F2, size: 0x8, addend: 0x0, symName: __ZNSt3__19allocatorINS_8valarrayIfEEEC2B7v160006Ev, symObjAddr: 0x4BD0, symBinAddr: 0x100006920, symSize: 0x20 }
  - { offsetInCU: 0x1451C, offset: 0x1451C, size: 0x8, addend: 0x0, symName: __ZNSt3__116__non_trivial_ifILb1ENS_9allocatorINS_8valarrayIfEEEEEC2B7v160006Ev, symObjAddr: 0x4BF0, symBinAddr: 0x100006940, symSize: 0x10 }
  - { offsetInCU: 0x14555, offset: 0x14555, size: 0x8, addend: 0x0, symName: __ZNSt3__116allocator_traitsINS_9allocatorINS_8valarrayIfEEEEE8max_sizeB7v160006IS4_vEEmRKS4_, symObjAddr: 0x4C00, symBinAddr: 0x100006950, symSize: 0x20 }
  - { offsetInCU: 0x14583, offset: 0x14583, size: 0x8, addend: 0x0, symName: __ZNKSt3__19allocatorINS_8valarrayIfEEE8max_sizeB7v160006Ev, symObjAddr: 0x4C20, symBinAddr: 0x100006970, symSize: 0x20 }
  - { offsetInCU: 0x145A9, offset: 0x145A9, size: 0x8, addend: 0x0, symName: __ZNSt3__19allocatorINS_8valarrayIfEEE10deallocateB7v160006EPS2_m, symObjAddr: 0x4C40, symBinAddr: 0x100006990, symSize: 0x40 }
  - { offsetInCU: 0x145EB, offset: 0x145EB, size: 0x8, addend: 0x0, symName: __ZNSt3__18valarrayINS0_IfEEED2Ev, symObjAddr: 0x4C80, symBinAddr: 0x1000069D0, symSize: 0x30 }
  - { offsetInCU: 0x14617, offset: 0x14617, size: 0x8, addend: 0x0, symName: __ZNSt3__18valarrayIfEC2Em, symObjAddr: 0x4CB0, symBinAddr: 0x100006A00, symSize: 0xB0 }
  - { offsetInCU: 0x14670, offset: 0x14670, size: 0x8, addend: 0x0, symName: __ZNSt3__19_BinaryOpINS_10multipliesIfEENS_8valarrayIfEES4_EC1B7v160006ERKS2_RKS4_S9_, symObjAddr: 0x4D60, symBinAddr: 0x100006AB0, symSize: 0x40 }
  - { offsetInCU: 0x146C7, offset: 0x146C7, size: 0x8, addend: 0x0, symName: __ZNSt3__110__val_exprINS_9_BinaryOpINS_10multipliesIfEENS_8valarrayIfEES5_EEEC1B7v160006ERKS6_, symObjAddr: 0x4DA0, symBinAddr: 0x100006AF0, symSize: 0x30 }
  - { offsetInCU: 0x14700, offset: 0x14700, size: 0x8, addend: 0x0, symName: __ZNSt3__19_BinaryOpINS_10multipliesIfEENS_8valarrayIfEES4_EC2B7v160006ERKS2_RKS4_S9_, symObjAddr: 0x4DD0, symBinAddr: 0x100006B20, symSize: 0x30 }
  - { offsetInCU: 0x14757, offset: 0x14757, size: 0x8, addend: 0x0, symName: __ZNSt3__110__val_exprINS_9_BinaryOpINS_10multipliesIfEENS_8valarrayIfEES5_EEEC2B7v160006ERKS6_, symObjAddr: 0x4E00, symBinAddr: 0x100006B50, symSize: 0x30 }
  - { offsetInCU: 0x14790, offset: 0x14790, size: 0x8, addend: 0x0, symName: __ZNKSt3__19_BinaryOpINS_10multipliesIfEENS_8valarrayIfEES4_E4sizeB7v160006Ev, symObjAddr: 0x4E30, symBinAddr: 0x100006B80, symSize: 0x20 }
  - { offsetInCU: 0x147B6, offset: 0x147B6, size: 0x8, addend: 0x0, symName: __ZNKSt3__19_BinaryOpINS_10multipliesIfEENS_8valarrayIfEES4_EixB7v160006Em, symObjAddr: 0x4E50, symBinAddr: 0x100006BA0, symSize: 0x60 }
  - { offsetInCU: 0x147EB, offset: 0x147EB, size: 0x8, addend: 0x0, symName: __ZNSt3__18valarrayINS0_IfEEEC2EOS2_, symObjAddr: 0x4EB0, symBinAddr: 0x100006C00, symSize: 0x40 }
  - { offsetInCU: 0x14826, offset: 0x14826, size: 0x8, addend: 0x0, symName: __ZNSt3__19_BinaryOpINS_10multipliesINS_8valarrayIfEEEENS2_IS3_EES5_EC1B7v160006ERKS4_RKS5_SA_, symObjAddr: 0x4EF0, symBinAddr: 0x100006C40, symSize: 0x40 }
  - { offsetInCU: 0x1487D, offset: 0x1487D, size: 0x8, addend: 0x0, symName: __ZNSt3__110__val_exprINS_9_BinaryOpINS_10multipliesINS_8valarrayIfEEEENS3_IS4_EES6_EEEC1B7v160006ERKS7_, symObjAddr: 0x4F30, symBinAddr: 0x100006C80, symSize: 0x30 }
  - { offsetInCU: 0x148B6, offset: 0x148B6, size: 0x8, addend: 0x0, symName: __ZNSt3__19_BinaryOpINS_10multipliesINS_8valarrayIfEEEENS2_IS3_EES5_EC2B7v160006ERKS4_RKS5_SA_, symObjAddr: 0x4F60, symBinAddr: 0x100006CB0, symSize: 0x30 }
  - { offsetInCU: 0x1490D, offset: 0x1490D, size: 0x8, addend: 0x0, symName: __ZNSt3__110__val_exprINS_9_BinaryOpINS_10multipliesINS_8valarrayIfEEEENS3_IS4_EES6_EEEC2B7v160006ERKS7_, symObjAddr: 0x4F90, symBinAddr: 0x100006CE0, symSize: 0x30 }
  - { offsetInCU: 0x14946, offset: 0x14946, size: 0x8, addend: 0x0, symName: __ZNSt3__18valarrayINS0_IfEEEC1B7v160006Ev, symObjAddr: 0x4FC0, symBinAddr: 0x100006D10, symSize: 0x20 }
  - { offsetInCU: 0x14970, offset: 0x14970, size: 0x8, addend: 0x0, symName: __ZNKSt3__19_BinaryOpINS_10multipliesINS_8valarrayIfEEEENS2_IS3_EES5_E4sizeB7v160006Ev, symObjAddr: 0x4FE0, symBinAddr: 0x100006D30, symSize: 0x20 }
  - { offsetInCU: 0x14996, offset: 0x14996, size: 0x8, addend: 0x0, symName: __ZNKSt3__19_BinaryOpINS_10multipliesINS_8valarrayIfEEEENS2_IS3_EES5_EixB7v160006Em, symObjAddr: 0x5000, symBinAddr: 0x100006D50, symSize: 0x70 }
  - { offsetInCU: 0x149CB, offset: 0x149CB, size: 0x8, addend: 0x0, symName: __ZNSt3__18valarrayINS0_IfEEEC2B7v160006Ev, symObjAddr: 0x5070, symBinAddr: 0x100006DC0, symSize: 0x20 }
  - { offsetInCU: 0x149F5, offset: 0x149F5, size: 0x8, addend: 0x0, symName: __ZNKSt3__110multipliesINS_8valarrayIfEEEclB7v160006ERKS2_S5_, symObjAddr: 0x5090, symBinAddr: 0x100006DE0, symSize: 0x50 }
  - { offsetInCU: 0x14A37, offset: 0x14A37, size: 0x8, addend: 0x0, symName: __ZNKSt3__18valarrayINS0_IfEEEixB7v160006Em, symObjAddr: 0x50E0, symBinAddr: 0x100006E30, symSize: 0x20 }
  - { offsetInCU: 0x14A6C, offset: 0x14A6C, size: 0x8, addend: 0x0, symName: __ZNKSt3__110__val_exprINS_9_BinaryOpINS_10multipliesIfEENS_8valarrayIfEES5_EEEcvS5_Ev, symObjAddr: 0x5100, symBinAddr: 0x100006E50, symSize: 0x130 }
  - { offsetInCU: 0x14AD1, offset: 0x14AD1, size: 0x8, addend: 0x0, symName: __ZNSt3__18valarrayIfEC2ERKfm, symObjAddr: 0x5230, symBinAddr: 0x100006F80, symSize: 0x40 }
  - { offsetInCU: 0x14B1B, offset: 0x14B1B, size: 0x8, addend: 0x0, symName: __ZNSt3__18valarrayIfE6resizeEmf, symObjAddr: 0x5270, symBinAddr: 0x100006FC0, symSize: 0xB0 }
  - { offsetInCU: 0x14B7F, offset: 0x14B7F, size: 0x8, addend: 0x0, symName: __ZNKSt3__110__val_exprINS_9_BinaryOpINS_10multipliesINS_8valarrayIfEEEENS3_IS4_EES6_EEE4sizeB7v160006Ev, symObjAddr: 0x5320, symBinAddr: 0x100007070, symSize: 0x20 }
  - { offsetInCU: 0x14BA5, offset: 0x14BA5, size: 0x8, addend: 0x0, symName: __ZNSt3__18valarrayINS0_IfEEE6resizeEmS1_, symObjAddr: 0x5340, symBinAddr: 0x100007090, symSize: 0x120 }
  - { offsetInCU: 0x14C0A, offset: 0x14C0A, size: 0x8, addend: 0x0, symName: __ZNKSt3__110__val_exprINS_9_BinaryOpINS_10multipliesINS_8valarrayIfEEEENS3_IS4_EES6_EEEixB7v160006Em, symObjAddr: 0x5460, symBinAddr: 0x1000071B0, symSize: 0x40 }
  - { offsetInCU: 0x14C3F, offset: 0x14C3F, size: 0x8, addend: 0x0, symName: __ZNSt3__18valarrayIfEC1ERKS1_, symObjAddr: 0x54A0, symBinAddr: 0x1000071F0, symSize: 0x30 }
  - { offsetInCU: 0x14C7A, offset: 0x14C7A, size: 0x8, addend: 0x0, symName: __ZNSt3__18valarrayIfEC2ERKS1_, symObjAddr: 0x54D0, symBinAddr: 0x100007220, symSize: 0xD0 }
  - { offsetInCU: 0x14CD3, offset: 0x14CD3, size: 0x8, addend: 0x0, symName: __ZNSt3__18valarrayIfE14__assign_rangeEPKfS3_, symObjAddr: 0x55A0, symBinAddr: 0x1000072F0, symSize: 0xC0 }
  - { offsetInCU: 0x14D4E, offset: 0x14D4E, size: 0x8, addend: 0x0, symName: __ZNSt3__14pairIPKfPfEC1B7v160006IS2_S3_LPv0EEEOT_OT0_, symObjAddr: 0x5800, symBinAddr: 0x100007550, symSize: 0x30 }
  - { offsetInCU: 0x14DAC, offset: 0x14DAC, size: 0x8, addend: 0x0, symName: __ZNSt3__14pairIPKfPfEC2B7v160006IS2_S3_LPv0EEEOT_OT0_, symObjAddr: 0x5840, symBinAddr: 0x100007590, symSize: 0x30 }
  - { offsetInCU: 0x14E14, offset: 0x14E14, size: 0x8, addend: 0x0, symName: __ZNKSt3__114__copy_trivialclB7v160006IKffLi0EEENS_4pairIPT_PT0_EES5_S5_S7_, symObjAddr: 0x59F0, symBinAddr: 0x100007740, symSize: 0x40 }
  - { offsetInCU: 0x14E96, offset: 0x14E96, size: 0x8, addend: 0x0, symName: __ZNSt3__14pairIPKfS2_EC1B7v160006IS2_S2_LPv0EEEOT_OT0_, symObjAddr: 0x5B40, symBinAddr: 0x100007890, symSize: 0x30 }
  - { offsetInCU: 0x14EF4, offset: 0x14EF4, size: 0x8, addend: 0x0, symName: __ZNSt3__14pairIPKfS2_EC2B7v160006IS2_S2_LPv0EEEOT_OT0_, symObjAddr: 0x5B70, symBinAddr: 0x1000078C0, symSize: 0x30 }
  - { offsetInCU: 0x14F52, offset: 0x14F52, size: 0x8, addend: 0x0, symName: __ZNSt3__118__unwrap_iter_implIPKfLb1EE8__unwrapB7v160006ES2_, symObjAddr: 0x5BA0, symBinAddr: 0x1000078F0, symSize: 0x20 }
  - { offsetInCU: 0x14F7A, offset: 0x14F7A, size: 0x8, addend: 0x0, symName: __ZNSt3__14pairIPKfPfEC1B7v160006IRS2_S3_LPv0EEEOT_OT0_, symObjAddr: 0x5C70, symBinAddr: 0x1000079C0, symSize: 0x30 }
  - { offsetInCU: 0x14FD8, offset: 0x14FD8, size: 0x8, addend: 0x0, symName: __ZNSt3__14pairIPKfPfEC2B7v160006IRS2_S3_LPv0EEEOT_OT0_, symObjAddr: 0x5CA0, symBinAddr: 0x1000079F0, symSize: 0x30 }
  - { offsetInCU: 0x15036, offset: 0x15036, size: 0x8, addend: 0x0, symName: __ZNSt3__118__unwrap_iter_implIPfLb1EE8__unwrapB7v160006ES1_, symObjAddr: 0x5CD0, symBinAddr: 0x100007A20, symSize: 0x20 }
  - { offsetInCU: 0x15059, offset: 0x15059, size: 0x8, addend: 0x0, symName: __ZNSt3__118__unwrap_iter_implIPKfLb1EE8__rewrapB7v160006ES2_S2_, symObjAddr: 0x5D40, symBinAddr: 0x100007A90, symSize: 0x50 }
  - { offsetInCU: 0x1508A, offset: 0x1508A, size: 0x8, addend: 0x0, symName: __ZNSt3__118__unwrap_iter_implIPfLb1EE8__rewrapB7v160006ES1_S1_, symObjAddr: 0x5D90, symBinAddr: 0x100007AE0, symSize: 0x50 }
  - { offsetInCU: 0x150BB, offset: 0x150BB, size: 0x8, addend: 0x0, symName: __ZNSt3__19_BinaryOpINS_4plusINS_8valarrayIfEEEENS2_IS3_EES5_EC1B7v160006ERKS4_RKS5_SA_, symObjAddr: 0x5DE0, symBinAddr: 0x100007B30, symSize: 0x40 }
  - { offsetInCU: 0x15112, offset: 0x15112, size: 0x8, addend: 0x0, symName: __ZNSt3__110__val_exprINS_9_BinaryOpINS_4plusINS_8valarrayIfEEEENS3_IS4_EES6_EEEC1B7v160006ERKS7_, symObjAddr: 0x5E20, symBinAddr: 0x100007B70, symSize: 0x30 }
  - { offsetInCU: 0x1514B, offset: 0x1514B, size: 0x8, addend: 0x0, symName: __ZNSt3__19_BinaryOpINS_4plusINS_8valarrayIfEEEENS2_IS3_EES5_EC2B7v160006ERKS4_RKS5_SA_, symObjAddr: 0x5E50, symBinAddr: 0x100007BA0, symSize: 0x30 }
  - { offsetInCU: 0x151A2, offset: 0x151A2, size: 0x8, addend: 0x0, symName: __ZNSt3__110__val_exprINS_9_BinaryOpINS_4plusINS_8valarrayIfEEEENS3_IS4_EES6_EEEC2B7v160006ERKS7_, symObjAddr: 0x5E80, symBinAddr: 0x100007BD0, symSize: 0x30 }
  - { offsetInCU: 0x151DB, offset: 0x151DB, size: 0x8, addend: 0x0, symName: __ZNSt3__19_BinaryOpINS_4plusINS_8valarrayIfEEEENS_10__val_exprINS0_IS4_NS2_IS3_EES6_EEEES6_EC1B7v160006ERKS4_RKS8_RKS6_, symObjAddr: 0x5EB0, symBinAddr: 0x100007C00, symSize: 0x40 }
  - { offsetInCU: 0x15232, offset: 0x15232, size: 0x8, addend: 0x0, symName: __ZNSt3__110__val_exprINS_9_BinaryOpINS_4plusINS_8valarrayIfEEEENS0_INS1_IS5_NS3_IS4_EES6_EEEES6_EEEC1B7v160006ERKS9_, symObjAddr: 0x5EF0, symBinAddr: 0x100007C40, symSize: 0x30 }
  - { offsetInCU: 0x1526B, offset: 0x1526B, size: 0x8, addend: 0x0, symName: __ZNSt3__19_BinaryOpINS_4plusINS_8valarrayIfEEEENS_10__val_exprINS0_IS4_NS2_IS3_EES6_EEEES6_EC2B7v160006ERKS4_RKS8_RKS6_, symObjAddr: 0x5F20, symBinAddr: 0x100007C70, symSize: 0x40 }
  - { offsetInCU: 0x152C2, offset: 0x152C2, size: 0x8, addend: 0x0, symName: __ZNSt3__110__val_exprINS_9_BinaryOpINS_4plusINS_8valarrayIfEEEENS0_INS1_IS5_NS3_IS4_EES6_EEEES6_EEEC2B7v160006ERKS9_, symObjAddr: 0x5F60, symBinAddr: 0x100007CB0, symSize: 0x30 }
  - { offsetInCU: 0x152FB, offset: 0x152FB, size: 0x8, addend: 0x0, symName: __ZNKSt3__19_BinaryOpINS_4plusINS_8valarrayIfEEEENS_10__val_exprINS0_IS4_NS2_IS3_EES6_EEEES6_E4sizeB7v160006Ev, symObjAddr: 0x5F90, symBinAddr: 0x100007CE0, symSize: 0x20 }
  - { offsetInCU: 0x15321, offset: 0x15321, size: 0x8, addend: 0x0, symName: __ZNKSt3__19_BinaryOpINS_4plusINS_8valarrayIfEEEENS_10__val_exprINS0_IS4_NS2_IS3_EES6_EEEES6_EixB7v160006Em, symObjAddr: 0x5FB0, symBinAddr: 0x100007D00, symSize: 0xA0 }
  - { offsetInCU: 0x15356, offset: 0x15356, size: 0x8, addend: 0x0, symName: __ZNKSt3__110__val_exprINS_9_BinaryOpINS_4plusINS_8valarrayIfEEEENS3_IS4_EES6_EEE4sizeB7v160006Ev, symObjAddr: 0x6050, symBinAddr: 0x100007DA0, symSize: 0x20 }
  - { offsetInCU: 0x1537C, offset: 0x1537C, size: 0x8, addend: 0x0, symName: __ZNKSt3__19_BinaryOpINS_4plusINS_8valarrayIfEEEENS2_IS3_EES5_E4sizeB7v160006Ev, symObjAddr: 0x6070, symBinAddr: 0x100007DC0, symSize: 0x20 }
  - { offsetInCU: 0x153A2, offset: 0x153A2, size: 0x8, addend: 0x0, symName: __ZNKSt3__14plusINS_8valarrayIfEEEclB7v160006ERKS2_S5_, symObjAddr: 0x6090, symBinAddr: 0x100007DE0, symSize: 0x50 }
  - { offsetInCU: 0x153E4, offset: 0x153E4, size: 0x8, addend: 0x0, symName: __ZNKSt3__110__val_exprINS_9_BinaryOpINS_4plusINS_8valarrayIfEEEENS3_IS4_EES6_EEEixB7v160006Em, symObjAddr: 0x60E0, symBinAddr: 0x100007E30, symSize: 0x40 }
  - { offsetInCU: 0x15419, offset: 0x15419, size: 0x8, addend: 0x0, symName: __ZNKSt3__110__val_exprINS_9_BinaryOpINS_4plusIfEENS_8valarrayIfEES5_EEEcvS5_Ev, symObjAddr: 0x6170, symBinAddr: 0x100007EC0, symSize: 0x140 }
  - { offsetInCU: 0x1547E, offset: 0x1547E, size: 0x8, addend: 0x0, symName: __ZNSt3__19_BinaryOpINS_4plusIfEENS_8valarrayIfEES4_EC1B7v160006ERKS2_RKS4_S9_, symObjAddr: 0x62B0, symBinAddr: 0x100008000, symSize: 0x40 }
  - { offsetInCU: 0x154D5, offset: 0x154D5, size: 0x8, addend: 0x0, symName: __ZNSt3__110__val_exprINS_9_BinaryOpINS_4plusIfEENS_8valarrayIfEES5_EEEC1B7v160006ERKS6_, symObjAddr: 0x62F0, symBinAddr: 0x100008040, symSize: 0x30 }
  - { offsetInCU: 0x1550E, offset: 0x1550E, size: 0x8, addend: 0x0, symName: __ZNSt3__19_BinaryOpINS_4plusIfEENS_8valarrayIfEES4_EC2B7v160006ERKS2_RKS4_S9_, symObjAddr: 0x6320, symBinAddr: 0x100008070, symSize: 0x30 }
  - { offsetInCU: 0x15565, offset: 0x15565, size: 0x8, addend: 0x0, symName: __ZNSt3__110__val_exprINS_9_BinaryOpINS_4plusIfEENS_8valarrayIfEES5_EEEC2B7v160006ERKS6_, symObjAddr: 0x6350, symBinAddr: 0x1000080A0, symSize: 0x30 }
  - { offsetInCU: 0x1559E, offset: 0x1559E, size: 0x8, addend: 0x0, symName: __ZNKSt3__19_BinaryOpINS_4plusIfEENS_8valarrayIfEES4_E4sizeB7v160006Ev, symObjAddr: 0x6380, symBinAddr: 0x1000080D0, symSize: 0x20 }
  - { offsetInCU: 0x155C4, offset: 0x155C4, size: 0x8, addend: 0x0, symName: __ZNKSt3__19_BinaryOpINS_4plusIfEENS_8valarrayIfEES4_EixB7v160006Em, symObjAddr: 0x63A0, symBinAddr: 0x1000080F0, symSize: 0x60 }
  - { offsetInCU: 0x155F9, offset: 0x155F9, size: 0x8, addend: 0x0, symName: __ZNKSt3__14plusIfEclB7v160006ERKfS3_, symObjAddr: 0x6400, symBinAddr: 0x100008150, symSize: 0x30 }
  - { offsetInCU: 0x1563B, offset: 0x1563B, size: 0x8, addend: 0x0, symName: __ZNKSt3__19_BinaryOpINS_4plusINS_8valarrayIfEEEENS2_IS3_EES5_EixB7v160006Em, symObjAddr: 0x6430, symBinAddr: 0x100008180, symSize: 0x70 }
  - { offsetInCU: 0x15670, offset: 0x15670, size: 0x8, addend: 0x0, symName: __ZNSt3__18valarrayIiEC2Em, symObjAddr: 0x64A0, symBinAddr: 0x1000081F0, symSize: 0xB0 }
  - { offsetInCU: 0x156DD, offset: 0x156DD, size: 0x8, addend: 0x0, symName: __ZNSt3__19allocatorIiEC1B7v160006Ev, symObjAddr: 0x6550, symBinAddr: 0x1000082A0, symSize: 0x20 }
  - { offsetInCU: 0x15707, offset: 0x15707, size: 0x8, addend: 0x0, symName: __ZNSt3__19allocatorIiE8allocateB7v160006Em, symObjAddr: 0x6570, symBinAddr: 0x1000082C0, symSize: 0x50 }
  - { offsetInCU: 0x1573B, offset: 0x1573B, size: 0x8, addend: 0x0, symName: __ZNSt3__19allocatorIiEC2B7v160006Ev, symObjAddr: 0x65C0, symBinAddr: 0x100008310, symSize: 0x20 }
  - { offsetInCU: 0x15765, offset: 0x15765, size: 0x8, addend: 0x0, symName: __ZNSt3__116__non_trivial_ifILb1ENS_9allocatorIiEEEC2B7v160006Ev, symObjAddr: 0x65E0, symBinAddr: 0x100008330, symSize: 0x10 }
  - { offsetInCU: 0x1579E, offset: 0x1579E, size: 0x8, addend: 0x0, symName: __ZNSt3__116allocator_traitsINS_9allocatorIiEEE8max_sizeB7v160006IS2_vEEmRKS2_, symObjAddr: 0x65F0, symBinAddr: 0x100008340, symSize: 0x20 }
  - { offsetInCU: 0x157CC, offset: 0x157CC, size: 0x8, addend: 0x0, symName: __ZNKSt3__19allocatorIiE8max_sizeB7v160006Ev, symObjAddr: 0x6610, symBinAddr: 0x100008360, symSize: 0x20 }
  - { offsetInCU: 0x157F2, offset: 0x157F2, size: 0x8, addend: 0x0, symName: __ZNSt3__18valarrayIiED2Ev, symObjAddr: 0x6630, symBinAddr: 0x100008380, symSize: 0x50 }
  - { offsetInCU: 0x1581E, offset: 0x1581E, size: 0x8, addend: 0x0, symName: __ZNSt3__18valarrayIiE7__clearEm, symObjAddr: 0x6680, symBinAddr: 0x1000083D0, symSize: 0x90 }
  - { offsetInCU: 0x15855, offset: 0x15855, size: 0x8, addend: 0x0, symName: __ZNKSt3__18valarrayIiE4sizeB7v160006Ev, symObjAddr: 0x6710, symBinAddr: 0x100008460, symSize: 0x20 }
  - { offsetInCU: 0x1587B, offset: 0x1587B, size: 0x8, addend: 0x0, symName: __ZNSt3__19allocatorIiE10deallocateB7v160006EPim, symObjAddr: 0x6730, symBinAddr: 0x100008480, symSize: 0x40 }
  - { offsetInCU: 0x158BD, offset: 0x158BD, size: 0x8, addend: 0x0, symName: __ZNSt3__18valarrayIiEC2EOS1_, symObjAddr: 0x6770, symBinAddr: 0x1000084C0, symSize: 0x40 }
  - { offsetInCU: 0x158F8, offset: 0x158F8, size: 0x8, addend: 0x0, symName: __ZNSt3__111slice_arrayIfEC1B7v160006ERKNS_5sliceERKNS_8valarrayIfEE, symObjAddr: 0x67B0, symBinAddr: 0x100008500, symSize: 0x30 }
  - { offsetInCU: 0x15940, offset: 0x15940, size: 0x8, addend: 0x0, symName: __ZNSt3__111slice_arrayIfEC2B7v160006ERKNS_5sliceERKNS_8valarrayIfEE, symObjAddr: 0x67E0, symBinAddr: 0x100008530, symSize: 0x80 }
  - { offsetInCU: 0x15988, offset: 0x15988, size: 0x8, addend: 0x0, symName: __ZNKSt3__15slice5startB7v160006Ev, symObjAddr: 0x6860, symBinAddr: 0x1000085B0, symSize: 0x20 }
  - { offsetInCU: 0x159AE, offset: 0x159AE, size: 0x8, addend: 0x0, symName: __ZNKSt3__15slice4sizeB7v160006Ev, symObjAddr: 0x6880, symBinAddr: 0x1000085D0, symSize: 0x20 }
  - { offsetInCU: 0x159D4, offset: 0x159D4, size: 0x8, addend: 0x0, symName: __ZNKSt3__15slice6strideB7v160006Ev, symObjAddr: 0x68A0, symBinAddr: 0x1000085F0, symSize: 0x20 }
  - { offsetInCU: 0x159FA, offset: 0x159FA, size: 0x8, addend: 0x0, symName: __ZNSt3__18valarrayIfEC2ERKNS_11slice_arrayIfEE, symObjAddr: 0x68C0, symBinAddr: 0x100008610, symSize: 0xE0 }
  - { offsetInCU: 0x15A99, offset: 0x15A99, size: 0x8, addend: 0x0, symName: __ZNKSt3__110__identityclIRfEEOT_S4_, symObjAddr: 0x6B60, symBinAddr: 0x1000088B0, symSize: 0x20 }
  - { offsetInCU: 0x15AD6, offset: 0x15AD6, size: 0x8, addend: 0x0, symName: __ZNSt3__18valarrayIiEC2ERKim, symObjAddr: 0x6B80, symBinAddr: 0x1000088D0, symSize: 0x40 }
  - { offsetInCU: 0x15B20, offset: 0x15B20, size: 0x8, addend: 0x0, symName: __ZNSt3__18valarrayIiE6resizeEmi, symObjAddr: 0x6BC0, symBinAddr: 0x100008910, symSize: 0xB0 }
  - { offsetInCU: 0x15B84, offset: 0x15B84, size: 0x8, addend: 0x0, symName: __ZNSt3__19_BinaryOpINS_12not_equal_toIiEENS_8valarrayIiEES4_EC1B7v160006ERKS2_RKS4_S9_, symObjAddr: 0x6C70, symBinAddr: 0x1000089C0, symSize: 0x40 }
  - { offsetInCU: 0x15BDB, offset: 0x15BDB, size: 0x8, addend: 0x0, symName: __ZNSt3__110__val_exprINS_9_BinaryOpINS_12not_equal_toIiEENS_8valarrayIiEES5_EEEC1B7v160006ERKS6_, symObjAddr: 0x6CB0, symBinAddr: 0x100008A00, symSize: 0x30 }
  - { offsetInCU: 0x15C14, offset: 0x15C14, size: 0x8, addend: 0x0, symName: __ZNSt3__19_BinaryOpINS_12not_equal_toIiEENS_8valarrayIiEES4_EC2B7v160006ERKS2_RKS4_S9_, symObjAddr: 0x6CE0, symBinAddr: 0x100008A30, symSize: 0x30 }
  - { offsetInCU: 0x15C6B, offset: 0x15C6B, size: 0x8, addend: 0x0, symName: __ZNSt3__110__val_exprINS_9_BinaryOpINS_12not_equal_toIiEENS_8valarrayIiEES5_EEEC2B7v160006ERKS6_, symObjAddr: 0x6D10, symBinAddr: 0x100008A60, symSize: 0x30 }
  - { offsetInCU: 0x15CA4, offset: 0x15CA4, size: 0x8, addend: 0x0, symName: __ZNKSt3__19_BinaryOpINS_12not_equal_toIiEENS_8valarrayIiEES4_E4sizeB7v160006Ev, symObjAddr: 0x6D40, symBinAddr: 0x100008A90, symSize: 0x20 }
  - { offsetInCU: 0x15CCA, offset: 0x15CCA, size: 0x8, addend: 0x0, symName: __ZNKSt3__19_BinaryOpINS_12not_equal_toIiEENS_8valarrayIiEES4_EixB7v160006Em, symObjAddr: 0x6D60, symBinAddr: 0x100008AB0, symSize: 0x60 }
  - { offsetInCU: 0x15CFF, offset: 0x15CFF, size: 0x8, addend: 0x0, symName: __ZNKSt3__112not_equal_toIiEclB7v160006ERKiS3_, symObjAddr: 0x6DC0, symBinAddr: 0x100008B10, symSize: 0x30 }
  - { offsetInCU: 0x15D43, offset: 0x15D43, size: 0x8, addend: 0x0, symName: __ZNKSt3__18valarrayIiEixB7v160006Em, symObjAddr: 0x6DF0, symBinAddr: 0x100008B40, symSize: 0x20 }
  - { offsetInCU: 0x15D78, offset: 0x15D78, size: 0x8, addend: 0x0, symName: __ZNSt3__113__scalar_exprIiEC1B7v160006ERKim, symObjAddr: 0x6E10, symBinAddr: 0x100008B60, symSize: 0x30 }
  - { offsetInCU: 0x15DC0, offset: 0x15DC0, size: 0x8, addend: 0x0, symName: __ZNSt3__19_BinaryOpINS_8equal_toIiEENS_8valarrayIiEENS_13__scalar_exprIiEEEC1B7v160006ERKS2_RKS4_RKS6_, symObjAddr: 0x6E40, symBinAddr: 0x100008B90, symSize: 0x40 }
  - { offsetInCU: 0x15E17, offset: 0x15E17, size: 0x8, addend: 0x0, symName: __ZNSt3__110__val_exprINS_9_BinaryOpINS_8equal_toIiEENS_8valarrayIiEENS_13__scalar_exprIiEEEEEC1B7v160006ERKS8_, symObjAddr: 0x6E80, symBinAddr: 0x100008BD0, symSize: 0x30 }
  - { offsetInCU: 0x15E50, offset: 0x15E50, size: 0x8, addend: 0x0, symName: __ZNSt3__113__scalar_exprIiEC2B7v160006ERKim, symObjAddr: 0x6EB0, symBinAddr: 0x100008C00, symSize: 0x30 }
  - { offsetInCU: 0x15E98, offset: 0x15E98, size: 0x8, addend: 0x0, symName: __ZNSt3__19_BinaryOpINS_8equal_toIiEENS_8valarrayIiEENS_13__scalar_exprIiEEEC2B7v160006ERKS2_RKS4_RKS6_, symObjAddr: 0x6EE0, symBinAddr: 0x100008C30, symSize: 0x40 }
  - { offsetInCU: 0x15EEF, offset: 0x15EEF, size: 0x8, addend: 0x0, symName: __ZNSt3__110__val_exprINS_9_BinaryOpINS_8equal_toIiEENS_8valarrayIiEENS_13__scalar_exprIiEEEEEC2B7v160006ERKS8_, symObjAddr: 0x6F20, symBinAddr: 0x100008C70, symSize: 0x40 }
  - { offsetInCU: 0x15F28, offset: 0x15F28, size: 0x8, addend: 0x0, symName: __ZNSt3__18valarrayIbEC1B7v160006Ev, symObjAddr: 0x6F60, symBinAddr: 0x100008CB0, symSize: 0x20 }
  - { offsetInCU: 0x15F52, offset: 0x15F52, size: 0x8, addend: 0x0, symName: __ZNKSt3__19_BinaryOpINS_8equal_toIiEENS_8valarrayIiEENS_13__scalar_exprIiEEE4sizeB7v160006Ev, symObjAddr: 0x6F80, symBinAddr: 0x100008CD0, symSize: 0x20 }
  - { offsetInCU: 0x15F91, offset: 0x15F91, size: 0x8, addend: 0x0, symName: __ZNSt3__19allocatorIbEC1B7v160006Ev, symObjAddr: 0x6FA0, symBinAddr: 0x100008CF0, symSize: 0x20 }
  - { offsetInCU: 0x15FBB, offset: 0x15FBB, size: 0x8, addend: 0x0, symName: __ZNSt3__19allocatorIbE8allocateB7v160006Em, symObjAddr: 0x6FC0, symBinAddr: 0x100008D10, symSize: 0x50 }
  - { offsetInCU: 0x15FEF, offset: 0x15FEF, size: 0x8, addend: 0x0, symName: __ZNKSt3__19_BinaryOpINS_8equal_toIiEENS_8valarrayIiEENS_13__scalar_exprIiEEEixB7v160006Em, symObjAddr: 0x7010, symBinAddr: 0x100008D60, symSize: 0x60 }
  - { offsetInCU: 0x16024, offset: 0x16024, size: 0x8, addend: 0x0, symName: __ZNSt3__18valarrayIbEC2B7v160006Ev, symObjAddr: 0x7070, symBinAddr: 0x100008DC0, symSize: 0x20 }
  - { offsetInCU: 0x1604E, offset: 0x1604E, size: 0x8, addend: 0x0, symName: __ZNSt3__19allocatorIbEC2B7v160006Ev, symObjAddr: 0x7090, symBinAddr: 0x100008DE0, symSize: 0x20 }
  - { offsetInCU: 0x16078, offset: 0x16078, size: 0x8, addend: 0x0, symName: __ZNSt3__116__non_trivial_ifILb1ENS_9allocatorIbEEEC2B7v160006Ev, symObjAddr: 0x70B0, symBinAddr: 0x100008E00, symSize: 0x10 }
  - { offsetInCU: 0x160B1, offset: 0x160B1, size: 0x8, addend: 0x0, symName: __ZNSt3__116allocator_traitsINS_9allocatorIbEEE8max_sizeB7v160006IS2_vEEmRKS2_, symObjAddr: 0x70C0, symBinAddr: 0x100008E10, symSize: 0x20 }
  - { offsetInCU: 0x160DF, offset: 0x160DF, size: 0x8, addend: 0x0, symName: __ZNKSt3__19allocatorIbE8max_sizeB7v160006Ev, symObjAddr: 0x70E0, symBinAddr: 0x100008E30, symSize: 0x20 }
  - { offsetInCU: 0x16105, offset: 0x16105, size: 0x8, addend: 0x0, symName: __ZNKSt3__18equal_toIiEclB7v160006ERKiS3_, symObjAddr: 0x7100, symBinAddr: 0x100008E50, symSize: 0x30 }
  - { offsetInCU: 0x16149, offset: 0x16149, size: 0x8, addend: 0x0, symName: __ZNKSt3__113__scalar_exprIiEixB7v160006Em, symObjAddr: 0x7130, symBinAddr: 0x100008E80, symSize: 0x20 }
  - { offsetInCU: 0x1617B, offset: 0x1617B, size: 0x8, addend: 0x0, symName: __ZNSt3__18valarrayIbED2B7v160006Ev, symObjAddr: 0x7150, symBinAddr: 0x100008EA0, symSize: 0x50 }
  - { offsetInCU: 0x161A7, offset: 0x161A7, size: 0x8, addend: 0x0, symName: __ZNSt3__18valarrayIbE7__clearB7v160006Em, symObjAddr: 0x71A0, symBinAddr: 0x100008EF0, symSize: 0x90 }
  - { offsetInCU: 0x161DE, offset: 0x161DE, size: 0x8, addend: 0x0, symName: __ZNKSt3__18valarrayIbE4sizeB7v160006Ev, symObjAddr: 0x7230, symBinAddr: 0x100008F80, symSize: 0x20 }
  - { offsetInCU: 0x16204, offset: 0x16204, size: 0x8, addend: 0x0, symName: __ZNSt3__19allocatorIbE10deallocateB7v160006EPbm, symObjAddr: 0x7250, symBinAddr: 0x100008FA0, symSize: 0x40 }
  - { offsetInCU: 0x16246, offset: 0x16246, size: 0x8, addend: 0x0, symName: __ZNSt3__110mask_arrayINS_8valarrayIfEEEC1B7v160006ERKNS1_IbEERKNS1_IS2_EE, symObjAddr: 0x7290, symBinAddr: 0x100008FE0, symSize: 0x30 }
  - { offsetInCU: 0x1628E, offset: 0x1628E, size: 0x8, addend: 0x0, symName: __ZNSt3__110mask_arrayINS_8valarrayIfEEEC2B7v160006ERKNS1_IbEERKNS1_IS2_EE, symObjAddr: 0x72C0, symBinAddr: 0x100009010, symSize: 0x130 }
  - { offsetInCU: 0x16300, offset: 0x16300, size: 0x8, addend: 0x0, symName: __ZNSt3__18valarrayImEC1B7v160006Em, symObjAddr: 0x7460, symBinAddr: 0x1000091B0, symSize: 0x30 }
  - { offsetInCU: 0x1633B, offset: 0x1633B, size: 0x8, addend: 0x0, symName: __ZNKSt3__18valarrayIbEixB7v160006Em, symObjAddr: 0x7490, symBinAddr: 0x1000091E0, symSize: 0x20 }
  - { offsetInCU: 0x16370, offset: 0x16370, size: 0x8, addend: 0x0, symName: __ZNSt3__18valarrayImEixB7v160006Em, symObjAddr: 0x74B0, symBinAddr: 0x100009200, symSize: 0x20 }
  - { offsetInCU: 0x163A5, offset: 0x163A5, size: 0x8, addend: 0x0, symName: __ZNSt3__18valarrayImEC2B7v160006Em, symObjAddr: 0x74D0, symBinAddr: 0x100009220, symSize: 0xB0 }
  - { offsetInCU: 0x163FE, offset: 0x163FE, size: 0x8, addend: 0x0, symName: __ZNSt3__19allocatorImE8allocateB7v160006Em, symObjAddr: 0x7580, symBinAddr: 0x1000092D0, symSize: 0x50 }
  - { offsetInCU: 0x16441, offset: 0x16441, size: 0x8, addend: 0x0, symName: __ZNSt3__116allocator_traitsINS_9allocatorImEEE8max_sizeB7v160006IS2_vEEmRKS2_, symObjAddr: 0x75D0, symBinAddr: 0x100009320, symSize: 0x20 }
  - { offsetInCU: 0x1646F, offset: 0x1646F, size: 0x8, addend: 0x0, symName: __ZNKSt3__19allocatorImE8max_sizeB7v160006Ev, symObjAddr: 0x75F0, symBinAddr: 0x100009340, symSize: 0x20 }
  - { offsetInCU: 0x16495, offset: 0x16495, size: 0x8, addend: 0x0, symName: __ZNSt3__18valarrayINS0_IfEEEC2ERKNS_10mask_arrayIS1_EE, symObjAddr: 0x7610, symBinAddr: 0x100009360, symSize: 0x150 }
  - { offsetInCU: 0x16527, offset: 0x16527, size: 0x8, addend: 0x0, symName: __ZNSt3__18valarrayIfEpLIS1_EENS_9enable_ifIXsr13__is_val_exprIT_EE5valueERS1_E4typeERKS4_, symObjAddr: 0x7760, symBinAddr: 0x1000094B0, symSize: 0x80 }
  - { offsetInCU: 0x16594, offset: 0x16594, size: 0x8, addend: 0x0, symName: __ZNSt3__19_BinaryOpINS_7dividesIfEENS_8valarrayIfEENS_13__scalar_exprIfEEEC1B7v160006ERKS2_RKS4_RKS6_, symObjAddr: 0x77E0, symBinAddr: 0x100009530, symSize: 0x40 }
  - { offsetInCU: 0x165EB, offset: 0x165EB, size: 0x8, addend: 0x0, symName: __ZNSt3__110__val_exprINS_9_BinaryOpINS_7dividesIfEENS_8valarrayIfEENS_13__scalar_exprIfEEEEEC1B7v160006ERKS8_, symObjAddr: 0x7820, symBinAddr: 0x100009570, symSize: 0x30 }
  - { offsetInCU: 0x16624, offset: 0x16624, size: 0x8, addend: 0x0, symName: __ZNSt3__19_BinaryOpINS_7dividesIfEENS_8valarrayIfEENS_13__scalar_exprIfEEEC2B7v160006ERKS2_RKS4_RKS6_, symObjAddr: 0x7850, symBinAddr: 0x1000095A0, symSize: 0x40 }
  - { offsetInCU: 0x1667B, offset: 0x1667B, size: 0x8, addend: 0x0, symName: __ZNSt3__110__val_exprINS_9_BinaryOpINS_7dividesIfEENS_8valarrayIfEENS_13__scalar_exprIfEEEEEC2B7v160006ERKS8_, symObjAddr: 0x7890, symBinAddr: 0x1000095E0, symSize: 0x40 }
  - { offsetInCU: 0x166B4, offset: 0x166B4, size: 0x8, addend: 0x0, symName: __ZNKSt3__110__val_exprINS_9_BinaryOpINS_7dividesIfEENS_8valarrayIfEENS_13__scalar_exprIfEEEEE4sizeB7v160006Ev, symObjAddr: 0x78D0, symBinAddr: 0x100009620, symSize: 0x20 }
  - { offsetInCU: 0x166DA, offset: 0x166DA, size: 0x8, addend: 0x0, symName: __ZNKSt3__110__val_exprINS_9_BinaryOpINS_7dividesIfEENS_8valarrayIfEENS_13__scalar_exprIfEEEEEixB7v160006Em, symObjAddr: 0x78F0, symBinAddr: 0x100009640, symSize: 0x30 }
  - { offsetInCU: 0x1670F, offset: 0x1670F, size: 0x8, addend: 0x0, symName: __ZNKSt3__19_BinaryOpINS_7dividesIfEENS_8valarrayIfEENS_13__scalar_exprIfEEE4sizeB7v160006Ev, symObjAddr: 0x7920, symBinAddr: 0x100009670, symSize: 0x20 }
  - { offsetInCU: 0x16735, offset: 0x16735, size: 0x8, addend: 0x0, symName: __ZNKSt3__19_BinaryOpINS_7dividesIfEENS_8valarrayIfEENS_13__scalar_exprIfEEEixB7v160006Em, symObjAddr: 0x7940, symBinAddr: 0x100009690, symSize: 0x50 }
  - { offsetInCU: 0x1676A, offset: 0x1676A, size: 0x8, addend: 0x0, symName: __ZNKSt3__17dividesIfEclB7v160006ERKfS3_, symObjAddr: 0x7990, symBinAddr: 0x1000096E0, symSize: 0x30 }
  - { offsetInCU: 0x167AC, offset: 0x167AC, size: 0x8, addend: 0x0, symName: __ZNSt3__18valarrayINS0_IfEEE14__assign_rangeEPKS1_S4_, symObjAddr: 0x79C0, symBinAddr: 0x100009710, symSize: 0xC0 }
  - { offsetInCU: 0x16827, offset: 0x16827, size: 0x8, addend: 0x0, symName: __ZNSt3__14pairIPKNS_8valarrayIfEEPS2_EC1B7v160006IS4_S5_LPv0EEEOT_OT0_, symObjAddr: 0x7C90, symBinAddr: 0x1000099E0, symSize: 0x30 }
  - { offsetInCU: 0x16885, offset: 0x16885, size: 0x8, addend: 0x0, symName: __ZNSt3__14pairIPKNS_8valarrayIfEEPS2_EC2B7v160006IS4_S5_LPv0EEEOT_OT0_, symObjAddr: 0x7CE0, symBinAddr: 0x100009A30, symSize: 0x30 }
  - { offsetInCU: 0x168ED, offset: 0x168ED, size: 0x8, addend: 0x0, symName: __ZNKSt3__111__copy_loopINS_17_ClassicAlgPolicyEEclB7v160006IPKNS_8valarrayIfEES7_PS5_EENS_4pairIT_T1_EESA_T0_SB_, symObjAddr: 0x7E90, symBinAddr: 0x100009BE0, symSize: 0x80 }
  - { offsetInCU: 0x16972, offset: 0x16972, size: 0x8, addend: 0x0, symName: __ZNSt3__14pairIPKNS_8valarrayIfEES4_EC1B7v160006IS4_S4_LPv0EEEOT_OT0_, symObjAddr: 0x8020, symBinAddr: 0x100009D70, symSize: 0x30 }
  - { offsetInCU: 0x169D0, offset: 0x169D0, size: 0x8, addend: 0x0, symName: __ZNSt3__14pairIPKNS_8valarrayIfEES4_EC2B7v160006IS4_S4_LPv0EEEOT_OT0_, symObjAddr: 0x8050, symBinAddr: 0x100009DA0, symSize: 0x30 }
  - { offsetInCU: 0x16A2E, offset: 0x16A2E, size: 0x8, addend: 0x0, symName: __ZNSt3__118__unwrap_iter_implIPKNS_8valarrayIfEELb1EE8__unwrapB7v160006ES4_, symObjAddr: 0x8080, symBinAddr: 0x100009DD0, symSize: 0x20 }
  - { offsetInCU: 0x16A51, offset: 0x16A51, size: 0x8, addend: 0x0, symName: __ZNSt3__118__unwrap_iter_implIPNS_8valarrayIfEELb1EE8__unwrapB7v160006ES3_, symObjAddr: 0x80B0, symBinAddr: 0x100009E00, symSize: 0x20 }
  - { offsetInCU: 0x16A74, offset: 0x16A74, size: 0x8, addend: 0x0, symName: __ZNSt3__118__unwrap_iter_implIPKNS_8valarrayIfEELb1EE8__rewrapB7v160006ES4_S4_, symObjAddr: 0x8120, symBinAddr: 0x100009E70, symSize: 0x50 }
  - { offsetInCU: 0x16AA5, offset: 0x16AA5, size: 0x8, addend: 0x0, symName: __ZNSt3__118__unwrap_iter_implIPNS_8valarrayIfEELb1EE8__rewrapB7v160006ES3_S3_, symObjAddr: 0x8170, symBinAddr: 0x100009EC0, symSize: 0x50 }
  - { offsetInCU: 0x16AD6, offset: 0x16AD6, size: 0x8, addend: 0x0, symName: __ZNSt3__19_BinaryOpINS_5minusIfEENS_8valarrayIfEES4_EC1B7v160006ERKS2_RKS4_S9_, symObjAddr: 0x81C0, symBinAddr: 0x100009F10, symSize: 0x40 }
  - { offsetInCU: 0x16B2D, offset: 0x16B2D, size: 0x8, addend: 0x0, symName: __ZNSt3__110__val_exprINS_9_BinaryOpINS_5minusIfEENS_8valarrayIfEES5_EEEC1B7v160006ERKS6_, symObjAddr: 0x8200, symBinAddr: 0x100009F50, symSize: 0x30 }
  - { offsetInCU: 0x16B66, offset: 0x16B66, size: 0x8, addend: 0x0, symName: __ZNSt3__19_BinaryOpINS_5minusIfEENS_8valarrayIfEES4_EC2B7v160006ERKS2_RKS4_S9_, symObjAddr: 0x8230, symBinAddr: 0x100009F80, symSize: 0x30 }
  - { offsetInCU: 0x16BBD, offset: 0x16BBD, size: 0x8, addend: 0x0, symName: __ZNSt3__110__val_exprINS_9_BinaryOpINS_5minusIfEENS_8valarrayIfEES5_EEEC2B7v160006ERKS6_, symObjAddr: 0x8260, symBinAddr: 0x100009FB0, symSize: 0x30 }
  - { offsetInCU: 0x16BF6, offset: 0x16BF6, size: 0x8, addend: 0x0, symName: __ZNSt3__19_BinaryOpINS_7dividesIfEENS_10__val_exprINS0_INS_5minusIfEENS_8valarrayIfEES7_EEEES7_EC1B7v160006ERKS2_RKS9_RKS7_, symObjAddr: 0x8290, symBinAddr: 0x100009FE0, symSize: 0x40 }
  - { offsetInCU: 0x16C4D, offset: 0x16C4D, size: 0x8, addend: 0x0, symName: __ZNSt3__110__val_exprINS_9_BinaryOpINS_7dividesIfEENS0_INS1_INS_5minusIfEENS_8valarrayIfEES7_EEEES7_EEEC1B7v160006ERKSA_, symObjAddr: 0x82D0, symBinAddr: 0x10000A020, symSize: 0x30 }
  - { offsetInCU: 0x16C86, offset: 0x16C86, size: 0x8, addend: 0x0, symName: __ZNSt3__19_BinaryOpINS_7dividesIfEENS_10__val_exprINS0_INS_5minusIfEENS_8valarrayIfEES7_EEEES7_EC2B7v160006ERKS2_RKS9_RKS7_, symObjAddr: 0x8300, symBinAddr: 0x10000A050, symSize: 0x40 }
  - { offsetInCU: 0x16CDD, offset: 0x16CDD, size: 0x8, addend: 0x0, symName: __ZNSt3__110__val_exprINS_9_BinaryOpINS_7dividesIfEENS0_INS1_INS_5minusIfEENS_8valarrayIfEES7_EEEES7_EEEC2B7v160006ERKSA_, symObjAddr: 0x8340, symBinAddr: 0x10000A090, symSize: 0x30 }
  - { offsetInCU: 0x16D16, offset: 0x16D16, size: 0x8, addend: 0x0, symName: __ZNKSt3__19_BinaryOpINS_7dividesIfEENS_10__val_exprINS0_INS_5minusIfEENS_8valarrayIfEES7_EEEES7_E4sizeB7v160006Ev, symObjAddr: 0x8370, symBinAddr: 0x10000A0C0, symSize: 0x20 }
  - { offsetInCU: 0x16D3C, offset: 0x16D3C, size: 0x8, addend: 0x0, symName: __ZNKSt3__19_BinaryOpINS_7dividesIfEENS_10__val_exprINS0_INS_5minusIfEENS_8valarrayIfEES7_EEEES7_EixB7v160006Em, symObjAddr: 0x8390, symBinAddr: 0x10000A0E0, symSize: 0x60 }
  - { offsetInCU: 0x16D71, offset: 0x16D71, size: 0x8, addend: 0x0, symName: __ZNKSt3__110__val_exprINS_9_BinaryOpINS_5minusIfEENS_8valarrayIfEES5_EEE4sizeB7v160006Ev, symObjAddr: 0x83F0, symBinAddr: 0x10000A140, symSize: 0x20 }
  - { offsetInCU: 0x16D97, offset: 0x16D97, size: 0x8, addend: 0x0, symName: __ZNKSt3__19_BinaryOpINS_5minusIfEENS_8valarrayIfEES4_E4sizeB7v160006Ev, symObjAddr: 0x8410, symBinAddr: 0x10000A160, symSize: 0x20 }
  - { offsetInCU: 0x16DBD, offset: 0x16DBD, size: 0x8, addend: 0x0, symName: __ZNKSt3__110__val_exprINS_9_BinaryOpINS_5minusIfEENS_8valarrayIfEES5_EEEixB7v160006Em, symObjAddr: 0x8430, symBinAddr: 0x10000A180, symSize: 0x30 }
  - { offsetInCU: 0x16DF2, offset: 0x16DF2, size: 0x8, addend: 0x0, symName: __ZNKSt3__19_BinaryOpINS_5minusIfEENS_8valarrayIfEES4_EixB7v160006Em, symObjAddr: 0x8460, symBinAddr: 0x10000A1B0, symSize: 0x60 }
  - { offsetInCU: 0x16E27, offset: 0x16E27, size: 0x8, addend: 0x0, symName: __ZNKSt3__15minusIfEclB7v160006ERKfS3_, symObjAddr: 0x84C0, symBinAddr: 0x10000A210, symSize: 0x30 }
  - { offsetInCU: 0x16E69, offset: 0x16E69, size: 0x8, addend: 0x0, symName: __ZNSt3__19basic_iosIcNS_11char_traitsIcEEEC2B7v160006Ev, symObjAddr: 0x84F0, symBinAddr: 0x10000A240, symSize: 0x40 }
  - { offsetInCU: 0x16E93, offset: 0x16E93, size: 0x8, addend: 0x0, symName: __ZNSt3__113basic_istreamIcNS_11char_traitsIcEEEC2B7v160006EPNS_15basic_streambufIcS2_EE, symObjAddr: 0x8530, symBinAddr: 0x10000A280, symSize: 0x50 }
  - { offsetInCU: 0x16ED8, offset: 0x16ED8, size: 0x8, addend: 0x0, symName: __ZNSt3__18ios_baseC2B7v160006Ev, symObjAddr: 0x8580, symBinAddr: 0x10000A2D0, symSize: 0x20 }
  - { offsetInCU: 0x16F02, offset: 0x16F02, size: 0x8, addend: 0x0, symName: __ZNSt3__19basic_iosIcNS_11char_traitsIcEEE4initB7v160006EPNS_15basic_streambufIcS2_EE, symObjAddr: 0x85A0, symBinAddr: 0x10000A2F0, symSize: 0x50 }
  - { offsetInCU: 0x16F39, offset: 0x16F39, size: 0x8, addend: 0x0, symName: __ZNSt3__111char_traitsIcE3eofEv, symObjAddr: 0x85F0, symBinAddr: 0x10000A340, symSize: 0x10 }
  - { offsetInCU: 0x16F4D, offset: 0x16F4D, size: 0x8, addend: 0x0, symName: __ZNSt3__112basic_stringIcNS_11char_traitsIcEENS_9allocatorIcEEEC2B7v160006IDnEEPKc, symObjAddr: 0x8600, symBinAddr: 0x10000A350, symSize: 0x60 }
  - { offsetInCU: 0x16F8B, offset: 0x16F8B, size: 0x8, addend: 0x0, symName: __ZNSt3__111char_traitsIcE6lengthEPKc, symObjAddr: 0x8660, symBinAddr: 0x10000A3B0, symSize: 0x30 }
  - { offsetInCU: 0x16FAE, offset: 0x16FAE, size: 0x8, addend: 0x0, symName: __ZNKSt3__19basic_iosIcNS_11char_traitsIcEEE5widenB7v160006Ec, symObjAddr: 0x86B0, symBinAddr: 0x10000A400, symSize: 0x80 }
  - { offsetInCU: 0x1701C, offset: 0x1701C, size: 0x8, addend: 0x0, symName: __ZNKSt3__15ctypeIcE5widenB7v160006Ec, symObjAddr: 0x8760, symBinAddr: 0x10000A4B0, symSize: 0x30 }
  - { offsetInCU: 0x17051, offset: 0x17051, size: 0x8, addend: 0x0, symName: __ZNKSt3__19basic_iosIcNS_11char_traitsIcEEE4failB7v160006Ev, symObjAddr: 0x8790, symBinAddr: 0x10000A4E0, symSize: 0x20 }
  - { offsetInCU: 0x17077, offset: 0x17077, size: 0x8, addend: 0x0, symName: __ZNKSt3__18ios_base4failB7v160006Ev, symObjAddr: 0x87B0, symBinAddr: 0x10000A500, symSize: 0x20 }
  - { offsetInCU: 0x1709F, offset: 0x1709F, size: 0x8, addend: 0x0, symName: __ZNSt3__114basic_iostreamIcNS_11char_traitsIcEEEC2B7v160006EPNS_15basic_streambufIcS2_EE, symObjAddr: 0x87D0, symBinAddr: 0x10000A520, symSize: 0xA0 }
  - { offsetInCU: 0x170E5, offset: 0x170E5, size: 0x8, addend: 0x0, symName: __ZNSt3__115basic_stringbufIcNS_11char_traitsIcEENS_9allocatorIcEEEC1B7v160006ERKNS_12basic_stringIcS2_S4_EEj, symObjAddr: 0x8870, symBinAddr: 0x10000A5C0, symSize: 0x30 }
  - { offsetInCU: 0x1712B, offset: 0x1712B, size: 0x8, addend: 0x0, symName: __ZNSt3__113basic_ostreamIcNS_11char_traitsIcEEEC2B7v160006Ev, symObjAddr: 0x88A0, symBinAddr: 0x10000A5F0, symSize: 0x30 }
  - { offsetInCU: 0x17162, offset: 0x17162, size: 0x8, addend: 0x0, symName: __ZNSt3__115basic_stringbufIcNS_11char_traitsIcEENS_9allocatorIcEEEC2B7v160006ERKNS_12basic_stringIcS2_S4_EEj, symObjAddr: 0x88D0, symBinAddr: 0x10000A620, symSize: 0xA0 }
  - { offsetInCU: 0x171A8, offset: 0x171A8, size: 0x8, addend: 0x0, symName: __ZNKSt3__112basic_stringIcNS_11char_traitsIcEENS_9allocatorIcEEE13get_allocatorB7v160006Ev, symObjAddr: 0x8970, symBinAddr: 0x10000A6C0, symSize: 0x20 }
  - { offsetInCU: 0x171CE, offset: 0x171CE, size: 0x8, addend: 0x0, symName: __ZNSt3__112basic_stringIcNS_11char_traitsIcEENS_9allocatorIcEEEC1B7v160006ERKS4_, symObjAddr: 0x8990, symBinAddr: 0x10000A6E0, symSize: 0x30 }
  - { offsetInCU: 0x17207, offset: 0x17207, size: 0x8, addend: 0x0, symName: __ZNKSt3__112basic_stringIcNS_11char_traitsIcEENS_9allocatorIcEEE7__allocB7v160006Ev, symObjAddr: 0x89C0, symBinAddr: 0x10000A710, symSize: 0x20 }
  - { offsetInCU: 0x1722D, offset: 0x1722D, size: 0x8, addend: 0x0, symName: __ZNKSt3__117__compressed_pairINS_12basic_stringIcNS_11char_traitsIcEENS_9allocatorIcEEE5__repES5_E6secondB7v160006Ev, symObjAddr: 0x89E0, symBinAddr: 0x10000A730, symSize: 0x20 }
  - { offsetInCU: 0x17253, offset: 0x17253, size: 0x8, addend: 0x0, symName: __ZNKSt3__122__compressed_pair_elemINS_9allocatorIcEELi1ELb1EE5__getB7v160006Ev, symObjAddr: 0x8A00, symBinAddr: 0x10000A750, symSize: 0x10 }
  - { offsetInCU: 0x17279, offset: 0x17279, size: 0x8, addend: 0x0, symName: __ZNSt3__112basic_stringIcNS_11char_traitsIcEENS_9allocatorIcEEEC2B7v160006ERKS4_, symObjAddr: 0x8A10, symBinAddr: 0x10000A760, symSize: 0x50 }
  - { offsetInCU: 0x172B2, offset: 0x172B2, size: 0x8, addend: 0x0, symName: __ZNSt3__117__compressed_pairINS_12basic_stringIcNS_11char_traitsIcEENS_9allocatorIcEEE5__repES5_EC1B7v160006INS_18__default_init_tagERKS5_EEOT_OT0_, symObjAddr: 0x8A60, symBinAddr: 0x10000A7B0, symSize: 0x30 }
  - { offsetInCU: 0x1730A, offset: 0x1730A, size: 0x8, addend: 0x0, symName: __ZNSt3__117__compressed_pairINS_12basic_stringIcNS_11char_traitsIcEENS_9allocatorIcEEE5__repES5_EC2B7v160006INS_18__default_init_tagERKS5_EEOT_OT0_, symObjAddr: 0x8A90, symBinAddr: 0x10000A7E0, symSize: 0x40 }
  - { offsetInCU: 0x17362, offset: 0x17362, size: 0x8, addend: 0x0, symName: __ZNSt3__122__compressed_pair_elemINS_9allocatorIcEELi1ELb1EEC2B7v160006IRKS2_vEEOT_, symObjAddr: 0x8AD0, symBinAddr: 0x10000A820, symSize: 0x10 }
  - { offsetInCU: 0x173C2, offset: 0x173C2, size: 0x8, addend: 0x0, symName: __ZNKSt3__113basic_istreamIcNS_11char_traitsIcEEE6sentrycvbB7v160006Ev, symObjAddr: 0x8AE0, symBinAddr: 0x10000A830, symSize: 0x20 }
  - { offsetInCU: 0x173E8, offset: 0x173E8, size: 0x8, addend: 0x0, symName: __ZNSt3__112basic_stringIcNS_11char_traitsIcEENS_9allocatorIcEEE5clearB7v160006Ev, symObjAddr: 0x8B00, symBinAddr: 0x10000A850, symSize: 0xA0 }
  - { offsetInCU: 0x17410, offset: 0x17410, size: 0x8, addend: 0x0, symName: __ZNKSt3__19basic_iosIcNS_11char_traitsIcEEE5rdbufB7v160006Ev, symObjAddr: 0x8BA0, symBinAddr: 0x10000A8F0, symSize: 0x20 }
  - { offsetInCU: 0x17438, offset: 0x17438, size: 0x8, addend: 0x0, symName: __ZNSt3__115basic_streambufIcNS_11char_traitsIcEEE6sbumpcB7v160006Ev, symObjAddr: 0x8BC0, symBinAddr: 0x10000A910, symSize: 0x60 }
  - { offsetInCU: 0x1745E, offset: 0x1745E, size: 0x8, addend: 0x0, symName: __ZNSt3__111char_traitsIcE11eq_int_typeEii, symObjAddr: 0x8C20, symBinAddr: 0x10000A970, symSize: 0x20 }
  - { offsetInCU: 0x1748F, offset: 0x1748F, size: 0x8, addend: 0x0, symName: __ZNSt3__111char_traitsIcE12to_char_typeEi, symObjAddr: 0x8C40, symBinAddr: 0x10000A990, symSize: 0x10 }
  - { offsetInCU: 0x174B2, offset: 0x174B2, size: 0x8, addend: 0x0, symName: __ZNSt3__111char_traitsIcE2eqEcc, symObjAddr: 0x8C50, symBinAddr: 0x10000A9A0, symSize: 0x30 }
  - { offsetInCU: 0x174E3, offset: 0x174E3, size: 0x8, addend: 0x0, symName: __ZNKSt3__112basic_stringIcNS_11char_traitsIcEENS_9allocatorIcEEE4sizeB7v160006Ev, symObjAddr: 0x8C80, symBinAddr: 0x10000A9D0, symSize: 0x50 }
  - { offsetInCU: 0x17509, offset: 0x17509, size: 0x8, addend: 0x0, symName: __ZNKSt3__112basic_stringIcNS_11char_traitsIcEENS_9allocatorIcEEE8max_sizeB7v160006Ev, symObjAddr: 0x8CD0, symBinAddr: 0x10000AA20, symSize: 0xA0 }
  - { offsetInCU: 0x1755C, offset: 0x1755C, size: 0x8, addend: 0x0, symName: __ZNSt3__18ios_base18__setstate_nothrowB7v160006Ej, symObjAddr: 0x8D70, symBinAddr: 0x10000AAC0, symSize: 0x50 }
  - { offsetInCU: 0x17591, offset: 0x17591, size: 0x8, addend: 0x0, symName: __ZNKSt3__19basic_iosIcNS_11char_traitsIcEEE10exceptionsB7v160006Ev, symObjAddr: 0x8DC0, symBinAddr: 0x10000AB10, symSize: 0x20 }
  - { offsetInCU: 0x175B7, offset: 0x175B7, size: 0x8, addend: 0x0, symName: __ZNSt3__19basic_iosIcNS_11char_traitsIcEEE8setstateB7v160006Ej, symObjAddr: 0x8DE0, symBinAddr: 0x10000AB30, symSize: 0x30 }
  - { offsetInCU: 0x175EC, offset: 0x175EC, size: 0x8, addend: 0x0, symName: __ZNKSt3__112basic_stringIcNS_11char_traitsIcEENS_9allocatorIcEEE9__is_longB7v160006Ev, symObjAddr: 0x8E20, symBinAddr: 0x10000AB70, symSize: 0x30 }
  - { offsetInCU: 0x17612, offset: 0x17612, size: 0x8, addend: 0x0, symName: __ZNSt3__111char_traitsIcE6assignERcRKc, symObjAddr: 0x8E50, symBinAddr: 0x10000ABA0, symSize: 0x20 }
  - { offsetInCU: 0x17643, offset: 0x17643, size: 0x8, addend: 0x0, symName: __ZNSt3__112basic_stringIcNS_11char_traitsIcEENS_9allocatorIcEEE18__get_long_pointerB7v160006Ev, symObjAddr: 0x8E70, symBinAddr: 0x10000ABC0, symSize: 0x20 }
  - { offsetInCU: 0x17669, offset: 0x17669, size: 0x8, addend: 0x0, symName: __ZNSt3__112basic_stringIcNS_11char_traitsIcEENS_9allocatorIcEEE15__set_long_sizeB7v160006Em, symObjAddr: 0x8E90, symBinAddr: 0x10000ABE0, symSize: 0x30 }
  - { offsetInCU: 0x1769E, offset: 0x1769E, size: 0x8, addend: 0x0, symName: __ZNSt3__112basic_stringIcNS_11char_traitsIcEENS_9allocatorIcEEE19__get_short_pointerB7v160006Ev, symObjAddr: 0x8EC0, symBinAddr: 0x10000AC10, symSize: 0x30 }
  - { offsetInCU: 0x176C4, offset: 0x176C4, size: 0x8, addend: 0x0, symName: __ZNSt3__112basic_stringIcNS_11char_traitsIcEENS_9allocatorIcEEE16__set_short_sizeB7v160006Em, symObjAddr: 0x8EF0, symBinAddr: 0x10000AC40, symSize: 0x50 }
  - { offsetInCU: 0x176F9, offset: 0x176F9, size: 0x8, addend: 0x0, symName: __ZNKSt3__117__compressed_pairINS_12basic_stringIcNS_11char_traitsIcEENS_9allocatorIcEEE5__repES5_E5firstB7v160006Ev, symObjAddr: 0x8F40, symBinAddr: 0x10000AC90, symSize: 0x20 }
  - { offsetInCU: 0x1771F, offset: 0x1771F, size: 0x8, addend: 0x0, symName: __ZNKSt3__122__compressed_pair_elemINS_12basic_stringIcNS_11char_traitsIcEENS_9allocatorIcEEE5__repELi0ELb0EE5__getB7v160006Ev, symObjAddr: 0x8F60, symBinAddr: 0x10000ACB0, symSize: 0x10 }
  - { offsetInCU: 0x17745, offset: 0x17745, size: 0x8, addend: 0x0, symName: __ZNSt3__114pointer_traitsIPcE10pointer_toB7v160006ERc, symObjAddr: 0x8F70, symBinAddr: 0x10000ACC0, symSize: 0x10 }
  - { offsetInCU: 0x17768, offset: 0x17768, size: 0x8, addend: 0x0, symName: __ZNKSt3__18ios_base5rdbufB7v160006Ev, symObjAddr: 0x8F80, symBinAddr: 0x10000ACD0, symSize: 0x20 }
  - { offsetInCU: 0x1778E, offset: 0x1778E, size: 0x8, addend: 0x0, symName: __ZNSt3__111char_traitsIcE11to_int_typeEc, symObjAddr: 0x8FA0, symBinAddr: 0x10000ACF0, symSize: 0x10 }
  - { offsetInCU: 0x177B1, offset: 0x177B1, size: 0x8, addend: 0x0, symName: __ZNKSt3__112basic_stringIcNS_11char_traitsIcEENS_9allocatorIcEEE15__get_long_sizeB7v160006Ev, symObjAddr: 0x8FB0, symBinAddr: 0x10000AD00, symSize: 0x20 }
  - { offsetInCU: 0x177D7, offset: 0x177D7, size: 0x8, addend: 0x0, symName: __ZNKSt3__112basic_stringIcNS_11char_traitsIcEENS_9allocatorIcEEE16__get_short_sizeB7v160006Ev, symObjAddr: 0x8FD0, symBinAddr: 0x10000AD20, symSize: 0x30 }
  - { offsetInCU: 0x17807, offset: 0x17807, size: 0x8, addend: 0x0, symName: __ZNSt3__116allocator_traitsINS_9allocatorIcEEE8max_sizeB7v160006IS2_vEEmRKS2_, symObjAddr: 0x9000, symBinAddr: 0x10000AD50, symSize: 0x20 }
  - { offsetInCU: 0x17835, offset: 0x17835, size: 0x8, addend: 0x0, symName: __ZNSt3__114numeric_limitsImE3maxB7v160006Ev, symObjAddr: 0x9020, symBinAddr: 0x10000AD70, symSize: 0x10 }
  - { offsetInCU: 0x17849, offset: 0x17849, size: 0x8, addend: 0x0, symName: __ZNKSt3__19allocatorIcE8max_sizeB7v160006Ev, symObjAddr: 0x9030, symBinAddr: 0x10000AD80, symSize: 0x20 }
  - { offsetInCU: 0x1786F, offset: 0x1786F, size: 0x8, addend: 0x0, symName: __ZNSt3__123__libcpp_numeric_limitsImLb1EE3maxB7v160006Ev, symObjAddr: 0x9050, symBinAddr: 0x10000ADA0, symSize: 0x10 }
  - { offsetInCU: 0x17883, offset: 0x17883, size: 0x8, addend: 0x0, symName: __ZNKSt3__18ios_base10exceptionsB7v160006Ev, symObjAddr: 0x9060, symBinAddr: 0x10000ADB0, symSize: 0x20 }
  - { offsetInCU: 0x178AB, offset: 0x178AB, size: 0x8, addend: 0x0, symName: __ZNSt3__18ios_base8setstateB7v160006Ej, symObjAddr: 0x9080, symBinAddr: 0x10000ADD0, symSize: 0x30 }
  - { offsetInCU: 0x17900, offset: 0x17900, size: 0x8, addend: 0x0, symName: __ZNKSt3__113basic_ostreamIcNS_11char_traitsIcEEE6sentrycvbB7v160006Ev, symObjAddr: 0x92A0, symBinAddr: 0x10000AFF0, symSize: 0x20 }
  - { offsetInCU: 0x17926, offset: 0x17926, size: 0x8, addend: 0x0, symName: __ZNSt3__119ostreambuf_iteratorIcNS_11char_traitsIcEEEC1B7v160006ERNS_13basic_ostreamIcS2_EE, symObjAddr: 0x94E0, symBinAddr: 0x10000B230, symSize: 0x30 }
  - { offsetInCU: 0x1795E, offset: 0x1795E, size: 0x8, addend: 0x0, symName: __ZNKSt3__18ios_base5flagsB7v160006Ev, symObjAddr: 0x9510, symBinAddr: 0x10000B260, symSize: 0x20 }
  - { offsetInCU: 0x17986, offset: 0x17986, size: 0x8, addend: 0x0, symName: __ZNKSt3__19basic_iosIcNS_11char_traitsIcEEE4fillB7v160006Ev, symObjAddr: 0x9530, symBinAddr: 0x10000B280, symSize: 0x70 }
  - { offsetInCU: 0x179AE, offset: 0x179AE, size: 0x8, addend: 0x0, symName: __ZNKSt3__119ostreambuf_iteratorIcNS_11char_traitsIcEEE6failedB7v160006Ev, symObjAddr: 0x95A0, symBinAddr: 0x10000B2F0, symSize: 0x20 }
  - { offsetInCU: 0x179D4, offset: 0x179D4, size: 0x8, addend: 0x0, symName: __ZNKSt3__18ios_base5widthB7v160006Ev, symObjAddr: 0x95C0, symBinAddr: 0x10000B310, symSize: 0x20 }
  - { offsetInCU: 0x179FC, offset: 0x179FC, size: 0x8, addend: 0x0, symName: __ZNSt3__115basic_streambufIcNS_11char_traitsIcEEE5sputnB7v160006EPKcl, symObjAddr: 0x95E0, symBinAddr: 0x10000B330, symSize: 0x30 }
  - { offsetInCU: 0x17A3E, offset: 0x17A3E, size: 0x8, addend: 0x0, symName: __ZNSt3__112basic_stringIcNS_11char_traitsIcEENS_9allocatorIcEEEC1B7v160006Emc, symObjAddr: 0x9610, symBinAddr: 0x10000B360, symSize: 0x30 }
  - { offsetInCU: 0x17A86, offset: 0x17A86, size: 0x8, addend: 0x0, symName: __ZNKSt3__112basic_stringIcNS_11char_traitsIcEENS_9allocatorIcEEE4dataB7v160006Ev, symObjAddr: 0x9640, symBinAddr: 0x10000B390, symSize: 0x30 }
  - { offsetInCU: 0x17AAC, offset: 0x17AAC, size: 0x8, addend: 0x0, symName: __ZNSt3__18ios_base5widthB7v160006El, symObjAddr: 0x9670, symBinAddr: 0x10000B3C0, symSize: 0x30 }
  - { offsetInCU: 0x17AF2, offset: 0x17AF2, size: 0x8, addend: 0x0, symName: __ZNSt3__112basic_stringIcNS_11char_traitsIcEENS_9allocatorIcEEEC2B7v160006Emc, symObjAddr: 0x96A0, symBinAddr: 0x10000B3F0, symSize: 0x50 }
  - { offsetInCU: 0x17B3A, offset: 0x17B3A, size: 0x8, addend: 0x0, symName: __ZNKSt3__112basic_stringIcNS_11char_traitsIcEENS_9allocatorIcEEE13__get_pointerB7v160006Ev, symObjAddr: 0x9700, symBinAddr: 0x10000B450, symSize: 0x50 }
  - { offsetInCU: 0x17B60, offset: 0x17B60, size: 0x8, addend: 0x0, symName: __ZNKSt3__112basic_stringIcNS_11char_traitsIcEENS_9allocatorIcEEE18__get_long_pointerB7v160006Ev, symObjAddr: 0x9750, symBinAddr: 0x10000B4A0, symSize: 0x20 }
  - { offsetInCU: 0x17B86, offset: 0x17B86, size: 0x8, addend: 0x0, symName: __ZNKSt3__112basic_stringIcNS_11char_traitsIcEENS_9allocatorIcEEE19__get_short_pointerB7v160006Ev, symObjAddr: 0x9770, symBinAddr: 0x10000B4C0, symSize: 0x30 }
  - { offsetInCU: 0x17BAC, offset: 0x17BAC, size: 0x8, addend: 0x0, symName: __ZNSt3__114pointer_traitsIPKcE10pointer_toB7v160006ERS1_, symObjAddr: 0x97A0, symBinAddr: 0x10000B4F0, symSize: 0x10 }
  - { offsetInCU: 0x17BCF, offset: 0x17BCF, size: 0x8, addend: 0x0, symName: __ZNSt3__119ostreambuf_iteratorIcNS_11char_traitsIcEEEC2B7v160006ERNS_13basic_ostreamIcS2_EE, symObjAddr: 0x97B0, symBinAddr: 0x10000B500, symSize: 0x4D }
...
